RL78 Family Assembler V1.12.00.04 Assemble Source List

OFFSET   CODE                  NO  SOURCE STATEMENT

00000000                        1  #CC-RL Compiler RL78 Assembler Source
00000000                        2  #@  CC-RL Version : V1.12.00  [02 Dec 2022]
00000000                        3  #@  Commmand :
00000000                        4  #@   MY_interrupts.c
00000000                        5  #@   -cpu=S3
00000000                        6  #@   -cref=Build/Release_BQFR\MY_interrupts.cref
00000000                        7  #@   -o Build/Release_BQFR\MY_interrupts.obj
00000000                        8  #@   -no_warning_num=20177,20550,20494,20174
00000000                        9  #@   -dev=C:\Program Files (x86)\Renesas Electronics\CS+\CC\Device\RL78\Devicefile\DR5F10NPJ.DVF
00000000                       10  #@   -g
00000000                       11  #@   -Onothing
00000000                       12  #@   -goptimize
00000000                       13  #@   -I Release_BQFR
00000000                       14  #@   -I rl78i1c\application\dlms\physical
00000000                       15  #@   -I rl78i1c\application\dlms\objects
00000000                       16  #@   -I rl78i1c\application\dlms\meter_app\hash
00000000                       17  #@   -I rl78i1c\application\dlms\meter_app\aes
00000000                       18  #@   -I rl78i1c\application\dlms\meter_app
00000000                       19  #@   -I rl78i1c\application\dlms
00000000                       20  #@   -I rl78i1c\application
00000000                       21  #@   -I rl78i1c\application\debug\loadtest
00000000                       22  #@   -I rl78i1c\application\services\64bit_process
00000000                       23  #@   -I .
00000000                       24  #@   -I rl78i1c\wrapper\core\sw\filter\config
00000000                       25  #@   -I rl78i1c\wrapper\core\sw\filter\include
00000000                       26  #@   -I rl78i1c\application\powermgmt
00000000                       27  #@   -I rl78i1c\application\storage\meterdata
00000000                       28  #@   -I rl78i1c\application\storage\config
00000000                       29  #@   -I rl78i1c\application\dataflash\fdl\incrl78
00000000                       30  #@   -I rl78i1c\application\dataflash
00000000                       31  #@   -I rl78i1c\application\services
00000000                       32  #@   -I rl78i1c\application\interpreter\mlsHeaders
00000000                       33  #@   -I rl78i1c\application\interpreter\mlsCIHandler
00000000                       34  #@   -I rl78i1c\application\interpreter\mlsCIEng
00000000                       35  #@   -I rl78i1c\application\interpreter\mlsCIComm
00000000                       36  #@   -I rl78i1c\application\interpreter\mlsCIApp
00000000                       37  #@   -I rl78i1c\driver\mcu
00000000                       38  #@   -I rl78i1c\application\calibration
00000000                       39  #@   -I rl78i1c\application\debug
00000000                       40  #@   -I rl78i1c\application\display&button
00000000                       41  #@   -I rl78i1c\application\display&button\lcd
00000000                       42  #@   -I rl78i1c\application\eeprom
00000000                       43  #@   -I rl78i1c\application\event
00000000                       44  #@   -I rl78i1c\application\startup
00000000                       45  #@   -I rl78i1c\application\storage
00000000                       46  #@   -I rl78i1c\middleware\headers
00000000                       47  #@   -I rl78i1c\middleware\plugin
00000000                       48  #@   -I rl78i1c\wrapper\user
00000000                       49  #@   -I rl78i1c\wrapper\core\sw
00000000                       50  #@   -I rl78i1c\wrapper\core\shared
00000000                       51  #@   -I .\
00000000                       52  #@   -D __BOARD_REVISION=2,FEATURES_BQFR
00000000                       53  #@   -refs_without_declaration
00000000                       54  #@   -signed_char
00000000                       55  #@   -merge_string
00000000                       56  #@   -asmopt=-prn_path=Release_BQFR
00000000                       57  #@   -convert_cc=ca78k0r
00000000                       58  #@   -c
00000000                       59  #@   -MAKEUD=Build/Release_BQFR
00000000                       60  #@   -exec_time=C:\Users\sys_f\AppData\Local\Temp\CSPlusBuildTool_c729e1125f8e428c9ae75a8696d1559bawfzobhk.j4w
00000000                       61  #@  compiled at Tue Aug 12 17:41:43 2025
00000000                       62  
00000000                       63  	.EXTERN _RAM_INTWDTI_ISR
00000000                       64  	.EXTERN _RAM_INTLVI_ISR
00000000                       65  	.EXTERN _RAM_INTP0_ISR
00000000                       66  	.EXTERN _RAM_INTP1_ISR
00000000                       67  	.EXTERN _RAM_INTP2_ISR
00000000                       68  	.EXTERN _RAM_INTP3_ISR
00000000                       69  	.EXTERN _RAM_INTP4_ISR
00000000                       70  	.EXTERN _RAM_INTP5_ISR
00000000                       71  	.EXTERN _RAM_INTST2_ISR
00000000                       72  	.EXTERN _RAM_INTSR2_ISR
00000000                       73  	.EXTERN _RAM_INTSRE2_ISR
00000000                       74  	.EXTERN _RAM_INTCR_ISR
00000000                       75  	.EXTERN _RAM_INTAES_ISR
00000000                       76  	.EXTERN _RAM_INTST0_ISR
00000000                       77  	.EXTERN _RAM_INTIICA0_ISR
00000000                       78  	.EXTERN _RAM_INTSR0_ISR
00000000                       79  	.EXTERN _RAM_INTSRE0_ISR
00000000                       80  	.EXTERN _RAM_INTST1_ISR
00000000                       81  	.EXTERN _RAM_INTSR1_ISR
00000000                       82  	.EXTERN _RAM_INTSRE1_ISR
00000000                       83  	.EXTERN _RAM_INTTM00_ISR
00000000                       84  	.EXTERN _RAM_INTFM_ISR
00000000                       85  	.EXTERN _RAM_INTTM01_ISR
00000000                       86  	.EXTERN _RAM_INTTM02_ISR
00000000                       87  	.EXTERN _RAM_INTTM03_ISR
00000000                       88  	.EXTERN _RAM_INTAD_ISR
00000000                       89  	.EXTERN _RAM_INTRTCRPD_ISR
00000000                       90  	.EXTERN _RAM_INTIT_ISR
00000000                       91  	.EXTERN _RAM_INTKR_ISR
00000000                       92  	.EXTERN _RAM_INTST3_ISR
00000000                       93  	.EXTERN _RAM_INTSR3_ISR
00000000                       94  	.EXTERN _RAM_INTDSAD_ISR
00000000                       95  	.EXTERN _RAM_INTTM04_ISR
00000000                       96  	.EXTERN _RAM_INTTM05_ISR
00000000                       97  	.EXTERN _RAM_INTP6_ISR
00000000                       98  	.EXTERN _RAM_INTP7_ISR
00000000                       99  	.EXTERN _RAM_INTRTCIC0_ISR
00000000                      100  	.EXTERN _RAM_INTRTCIC1_ISR
00000000                      101  	.EXTERN _RAM_INTRTCIC2_ISR
00000000                      102  	.EXTERN _RAM_INTTM06_ISR
00000000                      103  	.EXTERN _RAM_INTTM07_ISR
00000000                      104  	.EXTERN _RAM_INTIT00_ISR
00000000                      105  	.EXTERN _RAM_INTIT01_ISR
00000000                      106  	.EXTERN _RAM_INTSRE3_ISR
00000000                      107  	.EXTERN _RAM_INTMACLOF_ISR
00000000                      108  	.EXTERN _RAM_INTOSDC_ISR
00000000                      109  	.EXTERN _RAM_INTFL_ISR
00000000                      110  	.EXTERN _RAM_INTDSADZC0_ISR
00000000                      111  	.EXTERN _RAM_INTDSADZC1_ISR
00000000                      112  	.EXTERN _RAM_INTIT10_ISR
00000000                      113  	.EXTERN _RAM_INTIT11_ISR
00000000                      114  	.EXTERN _RAM_INTLVDVDD_ISR
00000000                      115  	.EXTERN _RAM_INTLVDVBAT_ISR
00000000                      116  	.EXTERN _RAM_INTLVDVRTC_ISR
00000000                      117  	.EXTERN _RAM_INTLVDEXLVD_ISR
00000000                      118  
00000000                      119  	.SECTION .text,TEXT
00000000                      120  _watchdog_intrpt@1	.vector 0x0004
00000000                      121  	.TYPE _watchdog_intrpt@1,function,.LFE1-_watchdog_intrpt@1
00000000                      122  _watchdog_intrpt@1:
00000000                      123  	.STACK _watchdog_intrpt@1 = 14
00000000                      124  	.LINE "D:/Sushmita/TENDER/2025/3_PHASE_METER_CODE/MEDCO_3PH_TENDER/Three-Phase-Base-MVVNL_Base-Code_010324_FOR_GUJRAT_UNI_47 -VER06_final - Copy/Application/MY_interrupts.c", 73
00000000 C1                   125  	push ax
00000001 C3                   126  	push bc
00000002 C5                   127  	push de
00000003 C7                   128  	push hl
00000004 8EFD                 129  	mov a, es
00000006 70                   130  	mov x, a
00000007 8EFC                 131  	mov a, cs
00000009 C1                   132  	push ax
0000000A                      133  	.LINE "D:/Sushmita/TENDER/2025/3_PHASE_METER_CODE/MEDCO_3PH_TENDER/Three-Phase-Base-MVVNL_Base-Code_010324_FOR_GUJRAT_UNI_47 -VER06_final - Copy/Application/MY_interrupts.c", 75
0000000A 8F0000               134  	mov a, !LOWW(_RAM_INTWDTI_ISR+0x00002)
0000000D 9EFC                 135  	mov cs, a
0000000F FB0000               136  	movw hl, !LOWW(_RAM_INTWDTI_ISR)
00000012 61FA                 137  	call hl
00000014 C0                   138  	pop ax
00000015 9EFC                 139  	mov cs, a
00000017 60                   140  	mov a, x
00000018 9EFD                 141  	mov es, a
0000001A C6                   142  	pop hl
0000001B C4                   143  	pop de
0000001C C2                   144  	pop bc
0000001D C0                   145  	pop ax
0000001E 61FC                 146  	reti
00000020                      147  .LFE1:
00000020                      148  _lvi_intrpt@1	.vector 0x0006
00000020                      149  	.TYPE _lvi_intrpt@1,function,.LFE2-_lvi_intrpt@1
00000020                      150  _lvi_intrpt@1:
00000020                      151  	.STACK _lvi_intrpt@1 = 14
00000020                      152  	.LINE "D:/Sushmita/TENDER/2025/3_PHASE_METER_CODE/MEDCO_3PH_TENDER/Three-Phase-Base-MVVNL_Base-Code_010324_FOR_GUJRAT_UNI_47 -VER06_final - Copy/Application/MY_interrupts.c", 78
00000020 C1                   153  	push ax
00000021 C3                   154  	push bc
00000022 C5                   155  	push de
00000023 C7                   156  	push hl
00000024 8EFD                 157  	mov a, es
00000026 70                   158  	mov x, a
00000027 8EFC                 159  	mov a, cs
00000029 C1                   160  	push ax
0000002A                      161  	.LINE "D:/Sushmita/TENDER/2025/3_PHASE_METER_CODE/MEDCO_3PH_TENDER/Three-Phase-Base-MVVNL_Base-Code_010324_FOR_GUJRAT_UNI_47 -VER06_final - Copy/Application/MY_interrupts.c", 80
0000002A 8F0000               162  	mov a, !LOWW(_RAM_INTLVI_ISR+0x00002)
0000002D 9EFC                 163  	mov cs, a
0000002F FB0000               164  	movw hl, !LOWW(_RAM_INTLVI_ISR)
00000032 61FA                 165  	call hl
00000034 C0                   166  	pop ax
00000035 9EFC                 167  	mov cs, a
00000037 60                   168  	mov a, x
00000038 9EFD                 169  	mov es, a
0000003A C6                   170  	pop hl
0000003B C4                   171  	pop de
0000003C C2                   172  	pop bc
0000003D C0                   173  	pop ax
0000003E 61FC                 174  	reti
00000040                      175  .LFE2:
00000040                      176  _intp0_intrpt@1	.vector 0x0008
00000040                      177  	.TYPE _intp0_intrpt@1,function,.LFE3-_intp0_intrpt@1
00000040                      178  _intp0_intrpt@1:
00000040                      179  	.STACK _intp0_intrpt@1 = 14
00000040                      180  	.LINE "D:/Sushmita/TENDER/2025/3_PHASE_METER_CODE/MEDCO_3PH_TENDER/Three-Phase-Base-MVVNL_Base-Code_010324_FOR_GUJRAT_UNI_47 -VER06_final - Copy/Application/MY_interrupts.c", 83
00000040 C1                   181  	push ax
00000041 C3                   182  	push bc
00000042 C5                   183  	push de
00000043 C7                   184  	push hl
00000044 8EFD                 185  	mov a, es
00000046 70                   186  	mov x, a
00000047 8EFC                 187  	mov a, cs
00000049 C1                   188  	push ax
0000004A                      189  	.LINE "D:/Sushmita/TENDER/2025/3_PHASE_METER_CODE/MEDCO_3PH_TENDER/Three-Phase-Base-MVVNL_Base-Code_010324_FOR_GUJRAT_UNI_47 -VER06_final - Copy/Application/MY_interrupts.c", 85
0000004A 8F0000               190  	mov a, !LOWW(_RAM_INTP0_ISR+0x00002)
0000004D 9EFC                 191  	mov cs, a
0000004F FB0000               192  	movw hl, !LOWW(_RAM_INTP0_ISR)
00000052 61FA                 193  	call hl
00000054 C0                   194  	pop ax
00000055 9EFC                 195  	mov cs, a
00000057 60                   196  	mov a, x
00000058 9EFD                 197  	mov es, a
0000005A C6                   198  	pop hl
0000005B C4                   199  	pop de
0000005C C2                   200  	pop bc
0000005D C0                   201  	pop ax
0000005E 61FC                 202  	reti
00000060                      203  .LFE3:
00000060                      204  _intp1_intrpt@1	.vector 0x000A
00000060                      205  	.TYPE _intp1_intrpt@1,function,.LFE4-_intp1_intrpt@1
00000060                      206  _intp1_intrpt@1:
00000060                      207  	.STACK _intp1_intrpt@1 = 14
00000060                      208  	.LINE "D:/Sushmita/TENDER/2025/3_PHASE_METER_CODE/MEDCO_3PH_TENDER/Three-Phase-Base-MVVNL_Base-Code_010324_FOR_GUJRAT_UNI_47 -VER06_final - Copy/Application/MY_interrupts.c", 88
00000060 C1                   209  	push ax
00000061 C3                   210  	push bc
00000062 C5                   211  	push de
00000063 C7                   212  	push hl
00000064 8EFD                 213  	mov a, es
00000066 70                   214  	mov x, a
00000067 8EFC                 215  	mov a, cs
00000069 C1                   216  	push ax
0000006A                      217  	.LINE "D:/Sushmita/TENDER/2025/3_PHASE_METER_CODE/MEDCO_3PH_TENDER/Three-Phase-Base-MVVNL_Base-Code_010324_FOR_GUJRAT_UNI_47 -VER06_final - Copy/Application/MY_interrupts.c", 90
0000006A 8F0000               218  	mov a, !LOWW(_RAM_INTP1_ISR+0x00002)
0000006D 9EFC                 219  	mov cs, a
0000006F FB0000               220  	movw hl, !LOWW(_RAM_INTP1_ISR)
00000072 61FA                 221  	call hl
00000074 C0                   222  	pop ax
00000075 9EFC                 223  	mov cs, a
00000077 60                   224  	mov a, x
00000078 9EFD                 225  	mov es, a
0000007A C6                   226  	pop hl
0000007B C4                   227  	pop de
0000007C C2                   228  	pop bc
0000007D C0                   229  	pop ax
0000007E 61FC                 230  	reti
00000080                      231  .LFE4:
00000080                      232  _intp2_intrpt@1	.vector 0x000C
00000080                      233  	.TYPE _intp2_intrpt@1,function,.LFE5-_intp2_intrpt@1
00000080                      234  _intp2_intrpt@1:
00000080                      235  	.STACK _intp2_intrpt@1 = 14
00000080                      236  	.LINE "D:/Sushmita/TENDER/2025/3_PHASE_METER_CODE/MEDCO_3PH_TENDER/Three-Phase-Base-MVVNL_Base-Code_010324_FOR_GUJRAT_UNI_47 -VER06_final - Copy/Application/MY_interrupts.c", 93
00000080 C1                   237  	push ax
00000081 C3                   238  	push bc
00000082 C5                   239  	push de
00000083 C7                   240  	push hl
00000084 8EFD                 241  	mov a, es
00000086 70                   242  	mov x, a
00000087 8EFC                 243  	mov a, cs
00000089 C1                   244  	push ax
0000008A                      245  	.LINE "D:/Sushmita/TENDER/2025/3_PHASE_METER_CODE/MEDCO_3PH_TENDER/Three-Phase-Base-MVVNL_Base-Code_010324_FOR_GUJRAT_UNI_47 -VER06_final - Copy/Application/MY_interrupts.c", 95
0000008A 8F0000               246  	mov a, !LOWW(_RAM_INTP2_ISR+0x00002)
0000008D 9EFC                 247  	mov cs, a
0000008F FB0000               248  	movw hl, !LOWW(_RAM_INTP2_ISR)
00000092 61FA                 249  	call hl
00000094 C0                   250  	pop ax
00000095 9EFC                 251  	mov cs, a
00000097 60                   252  	mov a, x
00000098 9EFD                 253  	mov es, a
0000009A C6                   254  	pop hl
0000009B C4                   255  	pop de
0000009C C2                   256  	pop bc
0000009D C0                   257  	pop ax
0000009E 61FC                 258  	reti
000000A0                      259  .LFE5:
000000A0                      260  _intp3_intrpt@1	.vector 0x000E
000000A0                      261  	.TYPE _intp3_intrpt@1,function,.LFE6-_intp3_intrpt@1
000000A0                      262  _intp3_intrpt@1:
000000A0                      263  	.STACK _intp3_intrpt@1 = 14
000000A0                      264  	.LINE "D:/Sushmita/TENDER/2025/3_PHASE_METER_CODE/MEDCO_3PH_TENDER/Three-Phase-Base-MVVNL_Base-Code_010324_FOR_GUJRAT_UNI_47 -VER06_final - Copy/Application/MY_interrupts.c", 98
000000A0 C1                   265  	push ax
000000A1 C3                   266  	push bc
000000A2 C5                   267  	push de
000000A3 C7                   268  	push hl
000000A4 8EFD                 269  	mov a, es
000000A6 70                   270  	mov x, a
000000A7 8EFC                 271  	mov a, cs
000000A9 C1                   272  	push ax
000000AA                      273  	.LINE "D:/Sushmita/TENDER/2025/3_PHASE_METER_CODE/MEDCO_3PH_TENDER/Three-Phase-Base-MVVNL_Base-Code_010324_FOR_GUJRAT_UNI_47 -VER06_final - Copy/Application/MY_interrupts.c", 100
000000AA 8F0000               274  	mov a, !LOWW(_RAM_INTP3_ISR+0x00002)
000000AD 9EFC                 275  	mov cs, a
000000AF FB0000               276  	movw hl, !LOWW(_RAM_INTP3_ISR)
000000B2 61FA                 277  	call hl
000000B4 C0                   278  	pop ax
000000B5 9EFC                 279  	mov cs, a
000000B7 60                   280  	mov a, x
000000B8 9EFD                 281  	mov es, a
000000BA C6                   282  	pop hl
000000BB C4                   283  	pop de
000000BC C2                   284  	pop bc
000000BD C0                   285  	pop ax
000000BE 61FC                 286  	reti
000000C0                      287  .LFE6:
000000C0                      288  _intp4_intrpt@1	.vector 0x0010
000000C0                      289  	.TYPE _intp4_intrpt@1,function,.LFE7-_intp4_intrpt@1
000000C0                      290  _intp4_intrpt@1:
000000C0                      291  	.STACK _intp4_intrpt@1 = 14
000000C0                      292  	.LINE "D:/Sushmita/TENDER/2025/3_PHASE_METER_CODE/MEDCO_3PH_TENDER/Three-Phase-Base-MVVNL_Base-Code_010324_FOR_GUJRAT_UNI_47 -VER06_final - Copy/Application/MY_interrupts.c", 103
000000C0 C1                   293  	push ax
000000C1 C3                   294  	push bc
000000C2 C5                   295  	push de
000000C3 C7                   296  	push hl
000000C4 8EFD                 297  	mov a, es
000000C6 70                   298  	mov x, a
000000C7 8EFC                 299  	mov a, cs
000000C9 C1                   300  	push ax
000000CA                      301  	.LINE "D:/Sushmita/TENDER/2025/3_PHASE_METER_CODE/MEDCO_3PH_TENDER/Three-Phase-Base-MVVNL_Base-Code_010324_FOR_GUJRAT_UNI_47 -VER06_final - Copy/Application/MY_interrupts.c", 105
000000CA 8F0000               302  	mov a, !LOWW(_RAM_INTP4_ISR+0x00002)
000000CD 9EFC                 303  	mov cs, a
000000CF FB0000               304  	movw hl, !LOWW(_RAM_INTP4_ISR)
000000D2 61FA                 305  	call hl
000000D4 C0                   306  	pop ax
000000D5 9EFC                 307  	mov cs, a
000000D7 60                   308  	mov a, x
000000D8 9EFD                 309  	mov es, a
000000DA C6                   310  	pop hl
000000DB C4                   311  	pop de
000000DC C2                   312  	pop bc
000000DD C0                   313  	pop ax
000000DE 61FC                 314  	reti
000000E0                      315  .LFE7:
000000E0                      316  _intp5_intrpt@1	.vector 0x0012
000000E0                      317  	.TYPE _intp5_intrpt@1,function,.LFE8-_intp5_intrpt@1
000000E0                      318  _intp5_intrpt@1:
000000E0                      319  	.STACK _intp5_intrpt@1 = 14
000000E0                      320  	.LINE "D:/Sushmita/TENDER/2025/3_PHASE_METER_CODE/MEDCO_3PH_TENDER/Three-Phase-Base-MVVNL_Base-Code_010324_FOR_GUJRAT_UNI_47 -VER06_final - Copy/Application/MY_interrupts.c", 108
000000E0 C1                   321  	push ax
000000E1 C3                   322  	push bc
000000E2 C5                   323  	push de
000000E3 C7                   324  	push hl
000000E4 8EFD                 325  	mov a, es
000000E6 70                   326  	mov x, a
000000E7 8EFC                 327  	mov a, cs
000000E9 C1                   328  	push ax
000000EA                      329  	.LINE "D:/Sushmita/TENDER/2025/3_PHASE_METER_CODE/MEDCO_3PH_TENDER/Three-Phase-Base-MVVNL_Base-Code_010324_FOR_GUJRAT_UNI_47 -VER06_final - Copy/Application/MY_interrupts.c", 110
000000EA 8F0000               330  	mov a, !LOWW(_RAM_INTP5_ISR+0x00002)
000000ED 9EFC                 331  	mov cs, a
000000EF FB0000               332  	movw hl, !LOWW(_RAM_INTP5_ISR)
000000F2 61FA                 333  	call hl
000000F4 C0                   334  	pop ax
000000F5 9EFC                 335  	mov cs, a
000000F7 60                   336  	mov a, x
000000F8 9EFD                 337  	mov es, a
000000FA C6                   338  	pop hl
000000FB C4                   339  	pop de
000000FC C2                   340  	pop bc
000000FD C0                   341  	pop ax
000000FE 61FC                 342  	reti
00000100                      343  .LFE8:
00000100                      344  _intst2_interrupt@1	.vector 0x0014
00000100                      345  	.TYPE _intst2_interrupt@1,function,.LFE9-_intst2_interrupt@1
00000100                      346  _intst2_interrupt@1:
00000100                      347  	.STACK _intst2_interrupt@1 = 14
00000100                      348  	.LINE "D:/Sushmita/TENDER/2025/3_PHASE_METER_CODE/MEDCO_3PH_TENDER/Three-Phase-Base-MVVNL_Base-Code_010324_FOR_GUJRAT_UNI_47 -VER06_final - Copy/Application/MY_interrupts.c", 113
00000100 C1                   349  	push ax
00000101 C3                   350  	push bc
00000102 C5                   351  	push de
00000103 C7                   352  	push hl
00000104 8EFD                 353  	mov a, es
00000106 70                   354  	mov x, a
00000107 8EFC                 355  	mov a, cs
00000109 C1                   356  	push ax
0000010A                      357  	.LINE "D:/Sushmita/TENDER/2025/3_PHASE_METER_CODE/MEDCO_3PH_TENDER/Three-Phase-Base-MVVNL_Base-Code_010324_FOR_GUJRAT_UNI_47 -VER06_final - Copy/Application/MY_interrupts.c", 115
0000010A 8F0000               358  	mov a, !LOWW(_RAM_INTST2_ISR+0x00002)
0000010D 9EFC                 359  	mov cs, a
0000010F FB0000               360  	movw hl, !LOWW(_RAM_INTST2_ISR)
00000112 61FA                 361  	call hl
00000114 C0                   362  	pop ax
00000115 9EFC                 363  	mov cs, a
00000117 60                   364  	mov a, x
00000118 9EFD                 365  	mov es, a
0000011A C6                   366  	pop hl
0000011B C4                   367  	pop de
0000011C C2                   368  	pop bc
0000011D C0                   369  	pop ax
0000011E 61FC                 370  	reti
00000120                      371  .LFE9:
00000120                      372  _intsr2_interrupt@1	.vector 0x0016
00000120                      373  	.TYPE _intsr2_interrupt@1,function,.LFE10-_intsr2_interrupt@1
00000120                      374  _intsr2_interrupt@1:
00000120                      375  	.STACK _intsr2_interrupt@1 = 14
00000120                      376  	.LINE "D:/Sushmita/TENDER/2025/3_PHASE_METER_CODE/MEDCO_3PH_TENDER/Three-Phase-Base-MVVNL_Base-Code_010324_FOR_GUJRAT_UNI_47 -VER06_final - Copy/Application/MY_interrupts.c", 118
00000120 C1                   377  	push ax
00000121 C3                   378  	push bc
00000122 C5                   379  	push de
00000123 C7                   380  	push hl
00000124 8EFD                 381  	mov a, es
00000126 70                   382  	mov x, a
00000127 8EFC                 383  	mov a, cs
00000129 C1                   384  	push ax
0000012A                      385  	.LINE "D:/Sushmita/TENDER/2025/3_PHASE_METER_CODE/MEDCO_3PH_TENDER/Three-Phase-Base-MVVNL_Base-Code_010324_FOR_GUJRAT_UNI_47 -VER06_final - Copy/Application/MY_interrupts.c", 120
0000012A 8F0000               386  	mov a, !LOWW(_RAM_INTSR2_ISR+0x00002)
0000012D 9EFC                 387  	mov cs, a
0000012F FB0000               388  	movw hl, !LOWW(_RAM_INTSR2_ISR)
00000132 61FA                 389  	call hl
00000134 C0                   390  	pop ax
00000135 9EFC                 391  	mov cs, a
00000137 60                   392  	mov a, x
00000138 9EFD                 393  	mov es, a
0000013A C6                   394  	pop hl
0000013B C4                   395  	pop de
0000013C C2                   396  	pop bc
0000013D C0                   397  	pop ax
0000013E 61FC                 398  	reti
00000140                      399  .LFE10:
00000140                      400  _intsre2_interrupt@1	.vector 0x0018
00000140                      401  	.TYPE _intsre2_interrupt@1,function,.LFE11-_intsre2_interrupt@1
00000140                      402  _intsre2_interrupt@1:
00000140                      403  	.STACK _intsre2_interrupt@1 = 14
00000140                      404  	.LINE "D:/Sushmita/TENDER/2025/3_PHASE_METER_CODE/MEDCO_3PH_TENDER/Three-Phase-Base-MVVNL_Base-Code_010324_FOR_GUJRAT_UNI_47 -VER06_final - Copy/Application/MY_interrupts.c", 123
00000140 C1                   405  	push ax
00000141 C3                   406  	push bc
00000142 C5                   407  	push de
00000143 C7                   408  	push hl
00000144 8EFD                 409  	mov a, es
00000146 70                   410  	mov x, a
00000147 8EFC                 411  	mov a, cs
00000149 C1                   412  	push ax
0000014A                      413  	.LINE "D:/Sushmita/TENDER/2025/3_PHASE_METER_CODE/MEDCO_3PH_TENDER/Three-Phase-Base-MVVNL_Base-Code_010324_FOR_GUJRAT_UNI_47 -VER06_final - Copy/Application/MY_interrupts.c", 125
0000014A 8F0000               414  	mov a, !LOWW(_RAM_INTSRE2_ISR+0x00002)
0000014D 9EFC                 415  	mov cs, a
0000014F FB0000               416  	movw hl, !LOWW(_RAM_INTSRE2_ISR)
00000152 61FA                 417  	call hl
00000154 C0                   418  	pop ax
00000155 9EFC                 419  	mov cs, a
00000157 60                   420  	mov a, x
00000158 9EFD                 421  	mov es, a
0000015A C6                   422  	pop hl
0000015B C4                   423  	pop de
0000015C C2                   424  	pop bc
0000015D C0                   425  	pop ax
0000015E 61FC                 426  	reti
00000160                      427  .LFE11:
00000160                      428  _intcr_interrupt@1	.vector 0x001A
00000160                      429  	.TYPE _intcr_interrupt@1,function,.LFE12-_intcr_interrupt@1
00000160                      430  _intcr_interrupt@1:
00000160                      431  	.STACK _intcr_interrupt@1 = 14
00000160                      432  	.LINE "D:/Sushmita/TENDER/2025/3_PHASE_METER_CODE/MEDCO_3PH_TENDER/Three-Phase-Base-MVVNL_Base-Code_010324_FOR_GUJRAT_UNI_47 -VER06_final - Copy/Application/MY_interrupts.c", 128
00000160 C1                   433  	push ax
00000161 C3                   434  	push bc
00000162 C5                   435  	push de
00000163 C7                   436  	push hl
00000164 8EFD                 437  	mov a, es
00000166 70                   438  	mov x, a
00000167 8EFC                 439  	mov a, cs
00000169 C1                   440  	push ax
0000016A                      441  	.LINE "D:/Sushmita/TENDER/2025/3_PHASE_METER_CODE/MEDCO_3PH_TENDER/Three-Phase-Base-MVVNL_Base-Code_010324_FOR_GUJRAT_UNI_47 -VER06_final - Copy/Application/MY_interrupts.c", 130
0000016A 8F0000               442  	mov a, !LOWW(_RAM_INTCR_ISR+0x00002)
0000016D 9EFC                 443  	mov cs, a
0000016F FB0000               444  	movw hl, !LOWW(_RAM_INTCR_ISR)
00000172 61FA                 445  	call hl
00000174 C0                   446  	pop ax
00000175 9EFC                 447  	mov cs, a
00000177 60                   448  	mov a, x
00000178 9EFD                 449  	mov es, a
0000017A C6                   450  	pop hl
0000017B C4                   451  	pop de
0000017C C2                   452  	pop bc
0000017D C0                   453  	pop ax
0000017E 61FC                 454  	reti
00000180                      455  .LFE12:
00000180                      456  _intaes_interrupt@1	.vector 0x001C
00000180                      457  	.TYPE _intaes_interrupt@1,function,.LFE13-_intaes_interrupt@1
00000180                      458  _intaes_interrupt@1:
00000180                      459  	.STACK _intaes_interrupt@1 = 14
00000180                      460  	.LINE "D:/Sushmita/TENDER/2025/3_PHASE_METER_CODE/MEDCO_3PH_TENDER/Three-Phase-Base-MVVNL_Base-Code_010324_FOR_GUJRAT_UNI_47 -VER06_final - Copy/Application/MY_interrupts.c", 133
00000180 C1                   461  	push ax
00000181 C3                   462  	push bc
00000182 C5                   463  	push de
00000183 C7                   464  	push hl
00000184 8EFD                 465  	mov a, es
00000186 70                   466  	mov x, a
00000187 8EFC                 467  	mov a, cs
00000189 C1                   468  	push ax
0000018A                      469  	.LINE "D:/Sushmita/TENDER/2025/3_PHASE_METER_CODE/MEDCO_3PH_TENDER/Three-Phase-Base-MVVNL_Base-Code_010324_FOR_GUJRAT_UNI_47 -VER06_final - Copy/Application/MY_interrupts.c", 135
0000018A 8F0000               470  	mov a, !LOWW(_RAM_INTAES_ISR+0x00002)
0000018D 9EFC                 471  	mov cs, a
0000018F FB0000               472  	movw hl, !LOWW(_RAM_INTAES_ISR)
00000192 61FA                 473  	call hl
00000194 C0                   474  	pop ax
00000195 9EFC                 475  	mov cs, a
00000197 60                   476  	mov a, x
00000198 9EFD                 477  	mov es, a
0000019A C6                   478  	pop hl
0000019B C4                   479  	pop de
0000019C C2                   480  	pop bc
0000019D C0                   481  	pop ax
0000019E 61FC                 482  	reti
000001A0                      483  .LFE13:
000001A0                      484  _intst0_interrupt@1	.vector 0x001E
000001A0                      485  	.TYPE _intst0_interrupt@1,function,.LFE14-_intst0_interrupt@1
000001A0                      486  _intst0_interrupt@1:
000001A0                      487  	.STACK _intst0_interrupt@1 = 14
000001A0                      488  	.LINE "D:/Sushmita/TENDER/2025/3_PHASE_METER_CODE/MEDCO_3PH_TENDER/Three-Phase-Base-MVVNL_Base-Code_010324_FOR_GUJRAT_UNI_47 -VER06_final - Copy/Application/MY_interrupts.c", 138
000001A0 C1                   489  	push ax
000001A1 C3                   490  	push bc
000001A2 C5                   491  	push de
000001A3 C7                   492  	push hl
000001A4 8EFD                 493  	mov a, es
000001A6 70                   494  	mov x, a
000001A7 8EFC                 495  	mov a, cs
000001A9 C1                   496  	push ax
000001AA                      497  	.LINE "D:/Sushmita/TENDER/2025/3_PHASE_METER_CODE/MEDCO_3PH_TENDER/Three-Phase-Base-MVVNL_Base-Code_010324_FOR_GUJRAT_UNI_47 -VER06_final - Copy/Application/MY_interrupts.c", 140
000001AA 8F0000               498  	mov a, !LOWW(_RAM_INTST0_ISR+0x00002)
000001AD 9EFC                 499  	mov cs, a
000001AF FB0000               500  	movw hl, !LOWW(_RAM_INTST0_ISR)
000001B2 61FA                 501  	call hl
000001B4 C0                   502  	pop ax
000001B5 9EFC                 503  	mov cs, a
000001B7 60                   504  	mov a, x
000001B8 9EFD                 505  	mov es, a
000001BA C6                   506  	pop hl
000001BB C4                   507  	pop de
000001BC C2                   508  	pop bc
000001BD C0                   509  	pop ax
000001BE 61FC                 510  	reti
000001C0                      511  .LFE14:
000001C0                      512  _intiica0_interrupt@1	.vector 0x0020
000001C0                      513  	.TYPE _intiica0_interrupt@1,function,.LFE15-_intiica0_interrupt@1
000001C0                      514  _intiica0_interrupt@1:
000001C0                      515  	.STACK _intiica0_interrupt@1 = 14
000001C0                      516  	.LINE "D:/Sushmita/TENDER/2025/3_PHASE_METER_CODE/MEDCO_3PH_TENDER/Three-Phase-Base-MVVNL_Base-Code_010324_FOR_GUJRAT_UNI_47 -VER06_final - Copy/Application/MY_interrupts.c", 143
000001C0 C1                   517  	push ax
000001C1 C3                   518  	push bc
000001C2 C5                   519  	push de
000001C3 C7                   520  	push hl
000001C4 8EFD                 521  	mov a, es
000001C6 70                   522  	mov x, a
000001C7 8EFC                 523  	mov a, cs
000001C9 C1                   524  	push ax
000001CA                      525  	.LINE "D:/Sushmita/TENDER/2025/3_PHASE_METER_CODE/MEDCO_3PH_TENDER/Three-Phase-Base-MVVNL_Base-Code_010324_FOR_GUJRAT_UNI_47 -VER06_final - Copy/Application/MY_interrupts.c", 145
000001CA 8F0000               526  	mov a, !LOWW(_RAM_INTIICA0_ISR+0x00002)
000001CD 9EFC                 527  	mov cs, a
000001CF FB0000               528  	movw hl, !LOWW(_RAM_INTIICA0_ISR)
000001D2 61FA                 529  	call hl
000001D4 C0                   530  	pop ax
000001D5 9EFC                 531  	mov cs, a
000001D7 60                   532  	mov a, x
000001D8 9EFD                 533  	mov es, a
000001DA C6                   534  	pop hl
000001DB C4                   535  	pop de
000001DC C2                   536  	pop bc
000001DD C0                   537  	pop ax
000001DE 61FC                 538  	reti
000001E0                      539  .LFE15:
000001E0                      540  _intsr0_interrupt@1	.vector 0x0022
000001E0                      541  	.TYPE _intsr0_interrupt@1,function,.LFE16-_intsr0_interrupt@1
000001E0                      542  _intsr0_interrupt@1:
000001E0                      543  	.STACK _intsr0_interrupt@1 = 14
000001E0                      544  	.LINE "D:/Sushmita/TENDER/2025/3_PHASE_METER_CODE/MEDCO_3PH_TENDER/Three-Phase-Base-MVVNL_Base-Code_010324_FOR_GUJRAT_UNI_47 -VER06_final - Copy/Application/MY_interrupts.c", 148
000001E0 C1                   545  	push ax
000001E1 C3                   546  	push bc
000001E2 C5                   547  	push de
000001E3 C7                   548  	push hl
000001E4 8EFD                 549  	mov a, es
000001E6 70                   550  	mov x, a
000001E7 8EFC                 551  	mov a, cs
000001E9 C1                   552  	push ax
000001EA                      553  	.LINE "D:/Sushmita/TENDER/2025/3_PHASE_METER_CODE/MEDCO_3PH_TENDER/Three-Phase-Base-MVVNL_Base-Code_010324_FOR_GUJRAT_UNI_47 -VER06_final - Copy/Application/MY_interrupts.c", 150
000001EA 8F0000               554  	mov a, !LOWW(_RAM_INTSR0_ISR+0x00002)
000001ED 9EFC                 555  	mov cs, a
000001EF FB0000               556  	movw hl, !LOWW(_RAM_INTSR0_ISR)
000001F2 61FA                 557  	call hl
000001F4 C0                   558  	pop ax
000001F5 9EFC                 559  	mov cs, a
000001F7 60                   560  	mov a, x
000001F8 9EFD                 561  	mov es, a
000001FA C6                   562  	pop hl
000001FB C4                   563  	pop de
000001FC C2                   564  	pop bc
000001FD C0                   565  	pop ax
000001FE 61FC                 566  	reti
00000200                      567  .LFE16:
00000200                      568  _intsre0_interrupt@1	.vector 0x0024
00000200                      569  	.TYPE _intsre0_interrupt@1,function,.LFE17-_intsre0_interrupt@1
00000200                      570  _intsre0_interrupt@1:
00000200                      571  	.STACK _intsre0_interrupt@1 = 14
00000200                      572  	.LINE "D:/Sushmita/TENDER/2025/3_PHASE_METER_CODE/MEDCO_3PH_TENDER/Three-Phase-Base-MVVNL_Base-Code_010324_FOR_GUJRAT_UNI_47 -VER06_final - Copy/Application/MY_interrupts.c", 153
00000200 C1                   573  	push ax
00000201 C3                   574  	push bc
00000202 C5                   575  	push de
00000203 C7                   576  	push hl
00000204 8EFD                 577  	mov a, es
00000206 70                   578  	mov x, a
00000207 8EFC                 579  	mov a, cs
00000209 C1                   580  	push ax
0000020A                      581  	.LINE "D:/Sushmita/TENDER/2025/3_PHASE_METER_CODE/MEDCO_3PH_TENDER/Three-Phase-Base-MVVNL_Base-Code_010324_FOR_GUJRAT_UNI_47 -VER06_final - Copy/Application/MY_interrupts.c", 155
0000020A 8F0000               582  	mov a, !LOWW(_RAM_INTSRE0_ISR+0x00002)
0000020D 9EFC                 583  	mov cs, a
0000020F FB0000               584  	movw hl, !LOWW(_RAM_INTSRE0_ISR)
00000212 61FA                 585  	call hl
00000214 C0                   586  	pop ax
00000215 9EFC                 587  	mov cs, a
00000217 60                   588  	mov a, x
00000218 9EFD                 589  	mov es, a
0000021A C6                   590  	pop hl
0000021B C4                   591  	pop de
0000021C C2                   592  	pop bc
0000021D C0                   593  	pop ax
0000021E 61FC                 594  	reti
00000220                      595  .LFE17:
00000220                      596  _intst1_interrupt@1	.vector 0x0026
00000220                      597  	.TYPE _intst1_interrupt@1,function,.LFE18-_intst1_interrupt@1
00000220                      598  _intst1_interrupt@1:
00000220                      599  	.STACK _intst1_interrupt@1 = 14
00000220                      600  	.LINE "D:/Sushmita/TENDER/2025/3_PHASE_METER_CODE/MEDCO_3PH_TENDER/Three-Phase-Base-MVVNL_Base-Code_010324_FOR_GUJRAT_UNI_47 -VER06_final - Copy/Application/MY_interrupts.c", 158
00000220 C1                   601  	push ax
00000221 C3                   602  	push bc
00000222 C5                   603  	push de
00000223 C7                   604  	push hl
00000224 8EFD                 605  	mov a, es
00000226 70                   606  	mov x, a
00000227 8EFC                 607  	mov a, cs
00000229 C1                   608  	push ax
0000022A                      609  	.LINE "D:/Sushmita/TENDER/2025/3_PHASE_METER_CODE/MEDCO_3PH_TENDER/Three-Phase-Base-MVVNL_Base-Code_010324_FOR_GUJRAT_UNI_47 -VER06_final - Copy/Application/MY_interrupts.c", 160
0000022A 8F0000               610  	mov a, !LOWW(_RAM_INTST1_ISR+0x00002)
0000022D 9EFC                 611  	mov cs, a
0000022F FB0000               612  	movw hl, !LOWW(_RAM_INTST1_ISR)
00000232 61FA                 613  	call hl
00000234 C0                   614  	pop ax
00000235 9EFC                 615  	mov cs, a
00000237 60                   616  	mov a, x
00000238 9EFD                 617  	mov es, a
0000023A C6                   618  	pop hl
0000023B C4                   619  	pop de
0000023C C2                   620  	pop bc
0000023D C0                   621  	pop ax
0000023E 61FC                 622  	reti
00000240                      623  .LFE18:
00000240                      624  _intsr1_interrupt@1	.vector 0x0028
00000240                      625  	.TYPE _intsr1_interrupt@1,function,.LFE19-_intsr1_interrupt@1
00000240                      626  _intsr1_interrupt@1:
00000240                      627  	.STACK _intsr1_interrupt@1 = 14
00000240                      628  	.LINE "D:/Sushmita/TENDER/2025/3_PHASE_METER_CODE/MEDCO_3PH_TENDER/Three-Phase-Base-MVVNL_Base-Code_010324_FOR_GUJRAT_UNI_47 -VER06_final - Copy/Application/MY_interrupts.c", 163
00000240 C1                   629  	push ax
00000241 C3                   630  	push bc
00000242 C5                   631  	push de
00000243 C7                   632  	push hl
00000244 8EFD                 633  	mov a, es
00000246 70                   634  	mov x, a
00000247 8EFC                 635  	mov a, cs
00000249 C1                   636  	push ax
0000024A                      637  	.LINE "D:/Sushmita/TENDER/2025/3_PHASE_METER_CODE/MEDCO_3PH_TENDER/Three-Phase-Base-MVVNL_Base-Code_010324_FOR_GUJRAT_UNI_47 -VER06_final - Copy/Application/MY_interrupts.c", 165
0000024A 8F0000               638  	mov a, !LOWW(_RAM_INTSR1_ISR+0x00002)
0000024D 9EFC                 639  	mov cs, a
0000024F FB0000               640  	movw hl, !LOWW(_RAM_INTSR1_ISR)
00000252 61FA                 641  	call hl
00000254 C0                   642  	pop ax
00000255 9EFC                 643  	mov cs, a
00000257 60                   644  	mov a, x
00000258 9EFD                 645  	mov es, a
0000025A C6                   646  	pop hl
0000025B C4                   647  	pop de
0000025C C2                   648  	pop bc
0000025D C0                   649  	pop ax
0000025E 61FC                 650  	reti
00000260                      651  .LFE19:
00000260                      652  _intsre1_interrupt@1	.vector 0x002A
00000260                      653  	.TYPE _intsre1_interrupt@1,function,.LFE20-_intsre1_interrupt@1
00000260                      654  _intsre1_interrupt@1:
00000260                      655  	.STACK _intsre1_interrupt@1 = 14
00000260                      656  	.LINE "D:/Sushmita/TENDER/2025/3_PHASE_METER_CODE/MEDCO_3PH_TENDER/Three-Phase-Base-MVVNL_Base-Code_010324_FOR_GUJRAT_UNI_47 -VER06_final - Copy/Application/MY_interrupts.c", 168
00000260 C1                   657  	push ax
00000261 C3                   658  	push bc
00000262 C5                   659  	push de
00000263 C7                   660  	push hl
00000264 8EFD                 661  	mov a, es
00000266 70                   662  	mov x, a
00000267 8EFC                 663  	mov a, cs
00000269 C1                   664  	push ax
0000026A                      665  	.LINE "D:/Sushmita/TENDER/2025/3_PHASE_METER_CODE/MEDCO_3PH_TENDER/Three-Phase-Base-MVVNL_Base-Code_010324_FOR_GUJRAT_UNI_47 -VER06_final - Copy/Application/MY_interrupts.c", 170
0000026A 8F0000               666  	mov a, !LOWW(_RAM_INTSRE1_ISR+0x00002)
0000026D 9EFC                 667  	mov cs, a
0000026F FB0000               668  	movw hl, !LOWW(_RAM_INTSRE1_ISR)
00000272 61FA                 669  	call hl
00000274 C0                   670  	pop ax
00000275 9EFC                 671  	mov cs, a
00000277 60                   672  	mov a, x
00000278 9EFD                 673  	mov es, a
0000027A C6                   674  	pop hl
0000027B C4                   675  	pop de
0000027C C2                   676  	pop bc
0000027D C0                   677  	pop ax
0000027E 61FC                 678  	reti
00000280                      679  .LFE20:
00000280                      680  _inttm00_interrupt@1	.vector 0x002C
00000280                      681  	.TYPE _inttm00_interrupt@1,function,.LFE21-_inttm00_interrupt@1
00000280                      682  _inttm00_interrupt@1:
00000280                      683  	.STACK _inttm00_interrupt@1 = 14
00000280                      684  	.LINE "D:/Sushmita/TENDER/2025/3_PHASE_METER_CODE/MEDCO_3PH_TENDER/Three-Phase-Base-MVVNL_Base-Code_010324_FOR_GUJRAT_UNI_47 -VER06_final - Copy/Application/MY_interrupts.c", 173
00000280 C1                   685  	push ax
00000281 C3                   686  	push bc
00000282 C5                   687  	push de
00000283 C7                   688  	push hl
00000284 8EFD                 689  	mov a, es
00000286 70                   690  	mov x, a
00000287 8EFC                 691  	mov a, cs
00000289 C1                   692  	push ax
0000028A                      693  	.LINE "D:/Sushmita/TENDER/2025/3_PHASE_METER_CODE/MEDCO_3PH_TENDER/Three-Phase-Base-MVVNL_Base-Code_010324_FOR_GUJRAT_UNI_47 -VER06_final - Copy/Application/MY_interrupts.c", 175
0000028A 8F0000               694  	mov a, !LOWW(_RAM_INTTM00_ISR+0x00002)
0000028D 9EFC                 695  	mov cs, a
0000028F FB0000               696  	movw hl, !LOWW(_RAM_INTTM00_ISR)
00000292 61FA                 697  	call hl
00000294 C0                   698  	pop ax
00000295 9EFC                 699  	mov cs, a
00000297 60                   700  	mov a, x
00000298 9EFD                 701  	mov es, a
0000029A C6                   702  	pop hl
0000029B C4                   703  	pop de
0000029C C2                   704  	pop bc
0000029D C0                   705  	pop ax
0000029E 61FC                 706  	reti
000002A0                      707  .LFE21:
000002A0                      708  _intfm_interrupt@1	.vector 0x0030
000002A0                      709  	.TYPE _intfm_interrupt@1,function,.LFE22-_intfm_interrupt@1
000002A0                      710  _intfm_interrupt@1:
000002A0                      711  	.STACK _intfm_interrupt@1 = 14
000002A0                      712  	.LINE "D:/Sushmita/TENDER/2025/3_PHASE_METER_CODE/MEDCO_3PH_TENDER/Three-Phase-Base-MVVNL_Base-Code_010324_FOR_GUJRAT_UNI_47 -VER06_final - Copy/Application/MY_interrupts.c", 178
000002A0 C1                   713  	push ax
000002A1 C3                   714  	push bc
000002A2 C5                   715  	push de
000002A3 C7                   716  	push hl
000002A4 8EFD                 717  	mov a, es
000002A6 70                   718  	mov x, a
000002A7 8EFC                 719  	mov a, cs
000002A9 C1                   720  	push ax
000002AA                      721  	.LINE "D:/Sushmita/TENDER/2025/3_PHASE_METER_CODE/MEDCO_3PH_TENDER/Three-Phase-Base-MVVNL_Base-Code_010324_FOR_GUJRAT_UNI_47 -VER06_final - Copy/Application/MY_interrupts.c", 180
000002AA 8F0000               722  	mov a, !LOWW(_RAM_INTFM_ISR+0x00002)
000002AD 9EFC                 723  	mov cs, a
000002AF FB0000               724  	movw hl, !LOWW(_RAM_INTFM_ISR)
000002B2 61FA                 725  	call hl
000002B4 C0                   726  	pop ax
000002B5 9EFC                 727  	mov cs, a
000002B7 60                   728  	mov a, x
000002B8 9EFD                 729  	mov es, a
000002BA C6                   730  	pop hl
000002BB C4                   731  	pop de
000002BC C2                   732  	pop bc
000002BD C0                   733  	pop ax
000002BE 61FC                 734  	reti
000002C0                      735  .LFE22:
000002C0                      736  _inttm01_interrupt@1	.vector 0x0032
000002C0                      737  	.TYPE _inttm01_interrupt@1,function,.LFE23-_inttm01_interrupt@1
000002C0                      738  _inttm01_interrupt@1:
000002C0                      739  	.STACK _inttm01_interrupt@1 = 14
000002C0                      740  	.LINE "D:/Sushmita/TENDER/2025/3_PHASE_METER_CODE/MEDCO_3PH_TENDER/Three-Phase-Base-MVVNL_Base-Code_010324_FOR_GUJRAT_UNI_47 -VER06_final - Copy/Application/MY_interrupts.c", 183
000002C0 C1                   741  	push ax
000002C1 C3                   742  	push bc
000002C2 C5                   743  	push de
000002C3 C7                   744  	push hl
000002C4 8EFD                 745  	mov a, es
000002C6 70                   746  	mov x, a
000002C7 8EFC                 747  	mov a, cs
000002C9 C1                   748  	push ax
000002CA                      749  	.LINE "D:/Sushmita/TENDER/2025/3_PHASE_METER_CODE/MEDCO_3PH_TENDER/Three-Phase-Base-MVVNL_Base-Code_010324_FOR_GUJRAT_UNI_47 -VER06_final - Copy/Application/MY_interrupts.c", 185
000002CA 8F0000               750  	mov a, !LOWW(_RAM_INTTM01_ISR+0x00002)
000002CD 9EFC                 751  	mov cs, a
000002CF FB0000               752  	movw hl, !LOWW(_RAM_INTTM01_ISR)
000002D2 61FA                 753  	call hl
000002D4 C0                   754  	pop ax
000002D5 9EFC                 755  	mov cs, a
000002D7 60                   756  	mov a, x
000002D8 9EFD                 757  	mov es, a
000002DA C6                   758  	pop hl
000002DB C4                   759  	pop de
000002DC C2                   760  	pop bc
000002DD C0                   761  	pop ax
000002DE 61FC                 762  	reti
000002E0                      763  .LFE23:
000002E0                      764  _inttm02_interrupt@1	.vector 0x0034
000002E0                      765  	.TYPE _inttm02_interrupt@1,function,.LFE24-_inttm02_interrupt@1
000002E0                      766  _inttm02_interrupt@1:
000002E0                      767  	.STACK _inttm02_interrupt@1 = 14
000002E0                      768  	.LINE "D:/Sushmita/TENDER/2025/3_PHASE_METER_CODE/MEDCO_3PH_TENDER/Three-Phase-Base-MVVNL_Base-Code_010324_FOR_GUJRAT_UNI_47 -VER06_final - Copy/Application/MY_interrupts.c", 188
000002E0 C1                   769  	push ax
000002E1 C3                   770  	push bc
000002E2 C5                   771  	push de
000002E3 C7                   772  	push hl
000002E4 8EFD                 773  	mov a, es
000002E6 70                   774  	mov x, a
000002E7 8EFC                 775  	mov a, cs
000002E9 C1                   776  	push ax
000002EA                      777  	.LINE "D:/Sushmita/TENDER/2025/3_PHASE_METER_CODE/MEDCO_3PH_TENDER/Three-Phase-Base-MVVNL_Base-Code_010324_FOR_GUJRAT_UNI_47 -VER06_final - Copy/Application/MY_interrupts.c", 190
000002EA 8F0000               778  	mov a, !LOWW(_RAM_INTTM02_ISR+0x00002)
000002ED 9EFC                 779  	mov cs, a
000002EF FB0000               780  	movw hl, !LOWW(_RAM_INTTM02_ISR)
000002F2 61FA                 781  	call hl
000002F4 C0                   782  	pop ax
000002F5 9EFC                 783  	mov cs, a
000002F7 60                   784  	mov a, x
000002F8 9EFD                 785  	mov es, a
000002FA C6                   786  	pop hl
000002FB C4                   787  	pop de
000002FC C2                   788  	pop bc
000002FD C0                   789  	pop ax
000002FE 61FC                 790  	reti
00000300                      791  .LFE24:
00000300                      792  _inttm03_interrupt@1	.vector 0x0036
00000300                      793  	.TYPE _inttm03_interrupt@1,function,.LFE25-_inttm03_interrupt@1
00000300                      794  _inttm03_interrupt@1:
00000300                      795  	.STACK _inttm03_interrupt@1 = 14
00000300                      796  	.LINE "D:/Sushmita/TENDER/2025/3_PHASE_METER_CODE/MEDCO_3PH_TENDER/Three-Phase-Base-MVVNL_Base-Code_010324_FOR_GUJRAT_UNI_47 -VER06_final - Copy/Application/MY_interrupts.c", 193
00000300 C1                   797  	push ax
00000301 C3                   798  	push bc
00000302 C5                   799  	push de
00000303 C7                   800  	push hl
00000304 8EFD                 801  	mov a, es
00000306 70                   802  	mov x, a
00000307 8EFC                 803  	mov a, cs
00000309 C1                   804  	push ax
0000030A                      805  	.LINE "D:/Sushmita/TENDER/2025/3_PHASE_METER_CODE/MEDCO_3PH_TENDER/Three-Phase-Base-MVVNL_Base-Code_010324_FOR_GUJRAT_UNI_47 -VER06_final - Copy/Application/MY_interrupts.c", 195
0000030A 8F0000               806  	mov a, !LOWW(_RAM_INTTM03_ISR+0x00002)
0000030D 9EFC                 807  	mov cs, a
0000030F FB0000               808  	movw hl, !LOWW(_RAM_INTTM03_ISR)
00000312 61FA                 809  	call hl
00000314 C0                   810  	pop ax
00000315 9EFC                 811  	mov cs, a
00000317 60                   812  	mov a, x
00000318 9EFD                 813  	mov es, a
0000031A C6                   814  	pop hl
0000031B C4                   815  	pop de
0000031C C2                   816  	pop bc
0000031D C0                   817  	pop ax
0000031E 61FC                 818  	reti
00000320                      819  .LFE25:
00000320                      820  _intad_interrupt@1	.vector 0x0038
00000320                      821  	.TYPE _intad_interrupt@1,function,.LFE26-_intad_interrupt@1
00000320                      822  _intad_interrupt@1:
00000320                      823  	.STACK _intad_interrupt@1 = 14
00000320                      824  	.LINE "D:/Sushmita/TENDER/2025/3_PHASE_METER_CODE/MEDCO_3PH_TENDER/Three-Phase-Base-MVVNL_Base-Code_010324_FOR_GUJRAT_UNI_47 -VER06_final - Copy/Application/MY_interrupts.c", 198
00000320 C1                   825  	push ax
00000321 C3                   826  	push bc
00000322 C5                   827  	push de
00000323 C7                   828  	push hl
00000324 8EFD                 829  	mov a, es
00000326 70                   830  	mov x, a
00000327 8EFC                 831  	mov a, cs
00000329 C1                   832  	push ax
0000032A                      833  	.LINE "D:/Sushmita/TENDER/2025/3_PHASE_METER_CODE/MEDCO_3PH_TENDER/Three-Phase-Base-MVVNL_Base-Code_010324_FOR_GUJRAT_UNI_47 -VER06_final - Copy/Application/MY_interrupts.c", 200
0000032A 8F0000               834  	mov a, !LOWW(_RAM_INTAD_ISR+0x00002)
0000032D 9EFC                 835  	mov cs, a
0000032F FB0000               836  	movw hl, !LOWW(_RAM_INTAD_ISR)
00000332 61FA                 837  	call hl
00000334 C0                   838  	pop ax
00000335 9EFC                 839  	mov cs, a
00000337 60                   840  	mov a, x
00000338 9EFD                 841  	mov es, a
0000033A C6                   842  	pop hl
0000033B C4                   843  	pop de
0000033C C2                   844  	pop bc
0000033D C0                   845  	pop ax
0000033E 61FC                 846  	reti
00000340                      847  .LFE26:
00000340                      848  _intrtcrpd_interrupt@1	.vector 0x003A
00000340                      849  	.TYPE _intrtcrpd_interrupt@1,function,.LFE27-_intrtcrpd_interrupt@1
00000340                      850  _intrtcrpd_interrupt@1:
00000340                      851  	.STACK _intrtcrpd_interrupt@1 = 14
00000340                      852  	.LINE "D:/Sushmita/TENDER/2025/3_PHASE_METER_CODE/MEDCO_3PH_TENDER/Three-Phase-Base-MVVNL_Base-Code_010324_FOR_GUJRAT_UNI_47 -VER06_final - Copy/Application/MY_interrupts.c", 203
00000340 C1                   853  	push ax
00000341 C3                   854  	push bc
00000342 C5                   855  	push de
00000343 C7                   856  	push hl
00000344 8EFD                 857  	mov a, es
00000346 70                   858  	mov x, a
00000347 8EFC                 859  	mov a, cs
00000349 C1                   860  	push ax
0000034A                      861  	.LINE "D:/Sushmita/TENDER/2025/3_PHASE_METER_CODE/MEDCO_3PH_TENDER/Three-Phase-Base-MVVNL_Base-Code_010324_FOR_GUJRAT_UNI_47 -VER06_final - Copy/Application/MY_interrupts.c", 205
0000034A 8F0000               862  	mov a, !LOWW(_RAM_INTRTCRPD_ISR+0x00002)
0000034D 9EFC                 863  	mov cs, a
0000034F FB0000               864  	movw hl, !LOWW(_RAM_INTRTCRPD_ISR)
00000352 61FA                 865  	call hl
00000354 C0                   866  	pop ax
00000355 9EFC                 867  	mov cs, a
00000357 60                   868  	mov a, x
00000358 9EFD                 869  	mov es, a
0000035A C6                   870  	pop hl
0000035B C4                   871  	pop de
0000035C C2                   872  	pop bc
0000035D C0                   873  	pop ax
0000035E 61FC                 874  	reti
00000360                      875  .LFE27:
00000360                      876  _intit_interrupt@1	.vector 0x003C
00000360                      877  	.TYPE _intit_interrupt@1,function,.LFE28-_intit_interrupt@1
00000360                      878  _intit_interrupt@1:
00000360                      879  	.STACK _intit_interrupt@1 = 14
00000360                      880  	.LINE "D:/Sushmita/TENDER/2025/3_PHASE_METER_CODE/MEDCO_3PH_TENDER/Three-Phase-Base-MVVNL_Base-Code_010324_FOR_GUJRAT_UNI_47 -VER06_final - Copy/Application/MY_interrupts.c", 208
00000360 C1                   881  	push ax
00000361 C3                   882  	push bc
00000362 C5                   883  	push de
00000363 C7                   884  	push hl
00000364 8EFD                 885  	mov a, es
00000366 70                   886  	mov x, a
00000367 8EFC                 887  	mov a, cs
00000369 C1                   888  	push ax
0000036A                      889  	.LINE "D:/Sushmita/TENDER/2025/3_PHASE_METER_CODE/MEDCO_3PH_TENDER/Three-Phase-Base-MVVNL_Base-Code_010324_FOR_GUJRAT_UNI_47 -VER06_final - Copy/Application/MY_interrupts.c", 210
0000036A 8F0000               890  	mov a, !LOWW(_RAM_INTIT_ISR+0x00002)
0000036D 9EFC                 891  	mov cs, a
0000036F FB0000               892  	movw hl, !LOWW(_RAM_INTIT_ISR)
00000372 61FA                 893  	call hl
00000374 C0                   894  	pop ax
00000375 9EFC                 895  	mov cs, a
00000377 60                   896  	mov a, x
00000378 9EFD                 897  	mov es, a
0000037A C6                   898  	pop hl
0000037B C4                   899  	pop de
0000037C C2                   900  	pop bc
0000037D C0                   901  	pop ax
0000037E 61FC                 902  	reti
00000380                      903  .LFE28:
00000380                      904  _intkr_interrupt@1	.vector 0x003E
00000380                      905  	.TYPE _intkr_interrupt@1,function,.LFE29-_intkr_interrupt@1
00000380                      906  _intkr_interrupt@1:
00000380                      907  	.STACK _intkr_interrupt@1 = 14
00000380                      908  	.LINE "D:/Sushmita/TENDER/2025/3_PHASE_METER_CODE/MEDCO_3PH_TENDER/Three-Phase-Base-MVVNL_Base-Code_010324_FOR_GUJRAT_UNI_47 -VER06_final - Copy/Application/MY_interrupts.c", 213
00000380 C1                   909  	push ax
00000381 C3                   910  	push bc
00000382 C5                   911  	push de
00000383 C7                   912  	push hl
00000384 8EFD                 913  	mov a, es
00000386 70                   914  	mov x, a
00000387 8EFC                 915  	mov a, cs
00000389 C1                   916  	push ax
0000038A                      917  	.LINE "D:/Sushmita/TENDER/2025/3_PHASE_METER_CODE/MEDCO_3PH_TENDER/Three-Phase-Base-MVVNL_Base-Code_010324_FOR_GUJRAT_UNI_47 -VER06_final - Copy/Application/MY_interrupts.c", 215
0000038A 8F0000               918  	mov a, !LOWW(_RAM_INTKR_ISR+0x00002)
0000038D 9EFC                 919  	mov cs, a
0000038F FB0000               920  	movw hl, !LOWW(_RAM_INTKR_ISR)
00000392 61FA                 921  	call hl
00000394 C0                   922  	pop ax
00000395 9EFC                 923  	mov cs, a
00000397 60                   924  	mov a, x
00000398 9EFD                 925  	mov es, a
0000039A C6                   926  	pop hl
0000039B C4                   927  	pop de
0000039C C2                   928  	pop bc
0000039D C0                   929  	pop ax
0000039E 61FC                 930  	reti
000003A0                      931  .LFE29:
000003A0                      932  _intst3_interrupt@1	.vector 0x0040
000003A0                      933  	.TYPE _intst3_interrupt@1,function,.LFE30-_intst3_interrupt@1
000003A0                      934  _intst3_interrupt@1:
000003A0                      935  	.STACK _intst3_interrupt@1 = 14
000003A0                      936  	.LINE "D:/Sushmita/TENDER/2025/3_PHASE_METER_CODE/MEDCO_3PH_TENDER/Three-Phase-Base-MVVNL_Base-Code_010324_FOR_GUJRAT_UNI_47 -VER06_final - Copy/Application/MY_interrupts.c", 218
000003A0 C1                   937  	push ax
000003A1 C3                   938  	push bc
000003A2 C5                   939  	push de
000003A3 C7                   940  	push hl
000003A4 8EFD                 941  	mov a, es
000003A6 70                   942  	mov x, a
000003A7 8EFC                 943  	mov a, cs
000003A9 C1                   944  	push ax
000003AA                      945  	.LINE "D:/Sushmita/TENDER/2025/3_PHASE_METER_CODE/MEDCO_3PH_TENDER/Three-Phase-Base-MVVNL_Base-Code_010324_FOR_GUJRAT_UNI_47 -VER06_final - Copy/Application/MY_interrupts.c", 220
000003AA 8F0000               946  	mov a, !LOWW(_RAM_INTST3_ISR+0x00002)
000003AD 9EFC                 947  	mov cs, a
000003AF FB0000               948  	movw hl, !LOWW(_RAM_INTST3_ISR)
000003B2 61FA                 949  	call hl
000003B4 C0                   950  	pop ax
000003B5 9EFC                 951  	mov cs, a
000003B7 60                   952  	mov a, x
000003B8 9EFD                 953  	mov es, a
000003BA C6                   954  	pop hl
000003BB C4                   955  	pop de
000003BC C2                   956  	pop bc
000003BD C0                   957  	pop ax
000003BE 61FC                 958  	reti
000003C0                      959  .LFE30:
000003C0                      960  _intsr3_interrupt@1	.vector 0x0042
000003C0                      961  	.TYPE _intsr3_interrupt@1,function,.LFE31-_intsr3_interrupt@1
000003C0                      962  _intsr3_interrupt@1:
000003C0                      963  	.STACK _intsr3_interrupt@1 = 14
000003C0                      964  	.LINE "D:/Sushmita/TENDER/2025/3_PHASE_METER_CODE/MEDCO_3PH_TENDER/Three-Phase-Base-MVVNL_Base-Code_010324_FOR_GUJRAT_UNI_47 -VER06_final - Copy/Application/MY_interrupts.c", 223
000003C0 C1                   965  	push ax
000003C1 C3                   966  	push bc
000003C2 C5                   967  	push de
000003C3 C7                   968  	push hl
000003C4 8EFD                 969  	mov a, es
000003C6 70                   970  	mov x, a
000003C7 8EFC                 971  	mov a, cs
000003C9 C1                   972  	push ax
000003CA                      973  	.LINE "D:/Sushmita/TENDER/2025/3_PHASE_METER_CODE/MEDCO_3PH_TENDER/Three-Phase-Base-MVVNL_Base-Code_010324_FOR_GUJRAT_UNI_47 -VER06_final - Copy/Application/MY_interrupts.c", 225
000003CA 8F0000               974  	mov a, !LOWW(_RAM_INTSR3_ISR+0x00002)
000003CD 9EFC                 975  	mov cs, a
000003CF FB0000               976  	movw hl, !LOWW(_RAM_INTSR3_ISR)
000003D2 61FA                 977  	call hl
000003D4 C0                   978  	pop ax
000003D5 9EFC                 979  	mov cs, a
000003D7 60                   980  	mov a, x
000003D8 9EFD                 981  	mov es, a
000003DA C6                   982  	pop hl
000003DB C4                   983  	pop de
000003DC C2                   984  	pop bc
000003DD C0                   985  	pop ax
000003DE 61FC                 986  	reti
000003E0                      987  .LFE31:
000003E0                      988  _intdsad_interrupt@1	.vector 0x0044
000003E0                      989  	.TYPE _intdsad_interrupt@1,function,.LFE32-_intdsad_interrupt@1
000003E0                      990  _intdsad_interrupt@1:
000003E0                      991  	.STACK _intdsad_interrupt@1 = 14
000003E0                      992  	.LINE "D:/Sushmita/TENDER/2025/3_PHASE_METER_CODE/MEDCO_3PH_TENDER/Three-Phase-Base-MVVNL_Base-Code_010324_FOR_GUJRAT_UNI_47 -VER06_final - Copy/Application/MY_interrupts.c", 229
000003E0 C1                   993  	push ax
000003E1 C3                   994  	push bc
000003E2 C5                   995  	push de
000003E3 C7                   996  	push hl
000003E4 8EFD                 997  	mov a, es
000003E6 70                   998  	mov x, a
000003E7 8EFC                 999  	mov a, cs
000003E9 C1                  1000  	push ax
000003EA                     1001  	.LINE "D:/Sushmita/TENDER/2025/3_PHASE_METER_CODE/MEDCO_3PH_TENDER/Three-Phase-Base-MVVNL_Base-Code_010324_FOR_GUJRAT_UNI_47 -VER06_final - Copy/Application/MY_interrupts.c", 231
000003EA 8F0000              1002  	mov a, !LOWW(_RAM_INTDSAD_ISR+0x00002)
000003ED 9EFC                1003  	mov cs, a
000003EF FB0000              1004  	movw hl, !LOWW(_RAM_INTDSAD_ISR)
000003F2 61FA                1005  	call hl
000003F4 C0                  1006  	pop ax
000003F5 9EFC                1007  	mov cs, a
000003F7 60                  1008  	mov a, x
000003F8 9EFD                1009  	mov es, a
000003FA C6                  1010  	pop hl
000003FB C4                  1011  	pop de
000003FC C2                  1012  	pop bc
000003FD C0                  1013  	pop ax
000003FE 61FC                1014  	reti
00000400                     1015  .LFE32:
00000400                     1016  _inttm04_interrupt@1	.vector 0x0046
00000400                     1017  	.TYPE _inttm04_interrupt@1,function,.LFE33-_inttm04_interrupt@1
00000400                     1018  _inttm04_interrupt@1:
00000400                     1019  	.STACK _inttm04_interrupt@1 = 14
00000400                     1020  	.LINE "D:/Sushmita/TENDER/2025/3_PHASE_METER_CODE/MEDCO_3PH_TENDER/Three-Phase-Base-MVVNL_Base-Code_010324_FOR_GUJRAT_UNI_47 -VER06_final - Copy/Application/MY_interrupts.c", 237
00000400 C1                  1021  	push ax
00000401 C3                  1022  	push bc
00000402 C5                  1023  	push de
00000403 C7                  1024  	push hl
00000404 8EFD                1025  	mov a, es
00000406 70                  1026  	mov x, a
00000407 8EFC                1027  	mov a, cs
00000409 C1                  1028  	push ax
0000040A                     1029  	.LINE "D:/Sushmita/TENDER/2025/3_PHASE_METER_CODE/MEDCO_3PH_TENDER/Three-Phase-Base-MVVNL_Base-Code_010324_FOR_GUJRAT_UNI_47 -VER06_final - Copy/Application/MY_interrupts.c", 239
0000040A 8F0000              1030  	mov a, !LOWW(_RAM_INTTM04_ISR+0x00002)
0000040D 9EFC                1031  	mov cs, a
0000040F FB0000              1032  	movw hl, !LOWW(_RAM_INTTM04_ISR)
00000412 61FA                1033  	call hl
00000414 C0                  1034  	pop ax
00000415 9EFC                1035  	mov cs, a
00000417 60                  1036  	mov a, x
00000418 9EFD                1037  	mov es, a
0000041A C6                  1038  	pop hl
0000041B C4                  1039  	pop de
0000041C C2                  1040  	pop bc
0000041D C0                  1041  	pop ax
0000041E 61FC                1042  	reti
00000420                     1043  .LFE33:
00000420                     1044  _inttm05_interrupt@1	.vector 0x0048
00000420                     1045  	.TYPE _inttm05_interrupt@1,function,.LFE34-_inttm05_interrupt@1
00000420                     1046  _inttm05_interrupt@1:
00000420                     1047  	.STACK _inttm05_interrupt@1 = 14
00000420                     1048  	.LINE "D:/Sushmita/TENDER/2025/3_PHASE_METER_CODE/MEDCO_3PH_TENDER/Three-Phase-Base-MVVNL_Base-Code_010324_FOR_GUJRAT_UNI_47 -VER06_final - Copy/Application/MY_interrupts.c", 242
00000420 C1                  1049  	push ax
00000421 C3                  1050  	push bc
00000422 C5                  1051  	push de
00000423 C7                  1052  	push hl
00000424 8EFD                1053  	mov a, es
00000426 70                  1054  	mov x, a
00000427 8EFC                1055  	mov a, cs
00000429 C1                  1056  	push ax
0000042A                     1057  	.LINE "D:/Sushmita/TENDER/2025/3_PHASE_METER_CODE/MEDCO_3PH_TENDER/Three-Phase-Base-MVVNL_Base-Code_010324_FOR_GUJRAT_UNI_47 -VER06_final - Copy/Application/MY_interrupts.c", 244
0000042A 8F0000              1058  	mov a, !LOWW(_RAM_INTTM05_ISR+0x00002)
0000042D 9EFC                1059  	mov cs, a
0000042F FB0000              1060  	movw hl, !LOWW(_RAM_INTTM05_ISR)
00000432 61FA                1061  	call hl
00000434 C0                  1062  	pop ax
00000435 9EFC                1063  	mov cs, a
00000437 60                  1064  	mov a, x
00000438 9EFD                1065  	mov es, a
0000043A C6                  1066  	pop hl
0000043B C4                  1067  	pop de
0000043C C2                  1068  	pop bc
0000043D C0                  1069  	pop ax
0000043E 61FC                1070  	reti
00000440                     1071  .LFE34:
00000440                     1072  _intp6_interrupt@1	.vector 0x004A
00000440                     1073  	.TYPE _intp6_interrupt@1,function,.LFE35-_intp6_interrupt@1
00000440                     1074  _intp6_interrupt@1:
00000440                     1075  	.STACK _intp6_interrupt@1 = 14
00000440                     1076  	.LINE "D:/Sushmita/TENDER/2025/3_PHASE_METER_CODE/MEDCO_3PH_TENDER/Three-Phase-Base-MVVNL_Base-Code_010324_FOR_GUJRAT_UNI_47 -VER06_final - Copy/Application/MY_interrupts.c", 247
00000440 C1                  1077  	push ax
00000441 C3                  1078  	push bc
00000442 C5                  1079  	push de
00000443 C7                  1080  	push hl
00000444 8EFD                1081  	mov a, es
00000446 70                  1082  	mov x, a
00000447 8EFC                1083  	mov a, cs
00000449 C1                  1084  	push ax
0000044A                     1085  	.LINE "D:/Sushmita/TENDER/2025/3_PHASE_METER_CODE/MEDCO_3PH_TENDER/Three-Phase-Base-MVVNL_Base-Code_010324_FOR_GUJRAT_UNI_47 -VER06_final - Copy/Application/MY_interrupts.c", 249
0000044A 8F0000              1086  	mov a, !LOWW(_RAM_INTP6_ISR+0x00002)
0000044D 9EFC                1087  	mov cs, a
0000044F FB0000              1088  	movw hl, !LOWW(_RAM_INTP6_ISR)
00000452 61FA                1089  	call hl
00000454 C0                  1090  	pop ax
00000455 9EFC                1091  	mov cs, a
00000457 60                  1092  	mov a, x
00000458 9EFD                1093  	mov es, a
0000045A C6                  1094  	pop hl
0000045B C4                  1095  	pop de
0000045C C2                  1096  	pop bc
0000045D C0                  1097  	pop ax
0000045E 61FC                1098  	reti
00000460                     1099  .LFE35:
00000460                     1100  _intp7_interrupt@1	.vector 0x004C
00000460                     1101  	.TYPE _intp7_interrupt@1,function,.LFE36-_intp7_interrupt@1
00000460                     1102  _intp7_interrupt@1:
00000460                     1103  	.STACK _intp7_interrupt@1 = 14
00000460                     1104  	.LINE "D:/Sushmita/TENDER/2025/3_PHASE_METER_CODE/MEDCO_3PH_TENDER/Three-Phase-Base-MVVNL_Base-Code_010324_FOR_GUJRAT_UNI_47 -VER06_final - Copy/Application/MY_interrupts.c", 252
00000460 C1                  1105  	push ax
00000461 C3                  1106  	push bc
00000462 C5                  1107  	push de
00000463 C7                  1108  	push hl
00000464 8EFD                1109  	mov a, es
00000466 70                  1110  	mov x, a
00000467 8EFC                1111  	mov a, cs
00000469 C1                  1112  	push ax
0000046A                     1113  	.LINE "D:/Sushmita/TENDER/2025/3_PHASE_METER_CODE/MEDCO_3PH_TENDER/Three-Phase-Base-MVVNL_Base-Code_010324_FOR_GUJRAT_UNI_47 -VER06_final - Copy/Application/MY_interrupts.c", 254
0000046A 8F0000              1114  	mov a, !LOWW(_RAM_INTP7_ISR+0x00002)
0000046D 9EFC                1115  	mov cs, a
0000046F FB0000              1116  	movw hl, !LOWW(_RAM_INTP7_ISR)
00000472 61FA                1117  	call hl
00000474 C0                  1118  	pop ax
00000475 9EFC                1119  	mov cs, a
00000477 60                  1120  	mov a, x
00000478 9EFD                1121  	mov es, a
0000047A C6                  1122  	pop hl
0000047B C4                  1123  	pop de
0000047C C2                  1124  	pop bc
0000047D C0                  1125  	pop ax
0000047E 61FC                1126  	reti
00000480                     1127  .LFE36:
00000480                     1128  _intrtcic0_interrupt@1	.vector 0x004E
00000480                     1129  	.TYPE _intrtcic0_interrupt@1,function,.LFE37-_intrtcic0_interrupt@1
00000480                     1130  _intrtcic0_interrupt@1:
00000480                     1131  	.STACK _intrtcic0_interrupt@1 = 14
00000480                     1132  	.LINE "D:/Sushmita/TENDER/2025/3_PHASE_METER_CODE/MEDCO_3PH_TENDER/Three-Phase-Base-MVVNL_Base-Code_010324_FOR_GUJRAT_UNI_47 -VER06_final - Copy/Application/MY_interrupts.c", 257
00000480 C1                  1133  	push ax
00000481 C3                  1134  	push bc
00000482 C5                  1135  	push de
00000483 C7                  1136  	push hl
00000484 8EFD                1137  	mov a, es
00000486 70                  1138  	mov x, a
00000487 8EFC                1139  	mov a, cs
00000489 C1                  1140  	push ax
0000048A                     1141  	.LINE "D:/Sushmita/TENDER/2025/3_PHASE_METER_CODE/MEDCO_3PH_TENDER/Three-Phase-Base-MVVNL_Base-Code_010324_FOR_GUJRAT_UNI_47 -VER06_final - Copy/Application/MY_interrupts.c", 259
0000048A 8F0000              1142  	mov a, !LOWW(_RAM_INTRTCIC0_ISR+0x00002)
0000048D 9EFC                1143  	mov cs, a
0000048F FB0000              1144  	movw hl, !LOWW(_RAM_INTRTCIC0_ISR)
00000492 61FA                1145  	call hl
00000494 C0                  1146  	pop ax
00000495 9EFC                1147  	mov cs, a
00000497 60                  1148  	mov a, x
00000498 9EFD                1149  	mov es, a
0000049A C6                  1150  	pop hl
0000049B C4                  1151  	pop de
0000049C C2                  1152  	pop bc
0000049D C0                  1153  	pop ax
0000049E 61FC                1154  	reti
000004A0                     1155  .LFE37:
000004A0                     1156  _intrtcic1_interrupt@1	.vector 0x0050
000004A0                     1157  	.TYPE _intrtcic1_interrupt@1,function,.LFE38-_intrtcic1_interrupt@1
000004A0                     1158  _intrtcic1_interrupt@1:
000004A0                     1159  	.STACK _intrtcic1_interrupt@1 = 14
000004A0                     1160  	.LINE "D:/Sushmita/TENDER/2025/3_PHASE_METER_CODE/MEDCO_3PH_TENDER/Three-Phase-Base-MVVNL_Base-Code_010324_FOR_GUJRAT_UNI_47 -VER06_final - Copy/Application/MY_interrupts.c", 262
000004A0 C1                  1161  	push ax
000004A1 C3                  1162  	push bc
000004A2 C5                  1163  	push de
000004A3 C7                  1164  	push hl
000004A4 8EFD                1165  	mov a, es
000004A6 70                  1166  	mov x, a
000004A7 8EFC                1167  	mov a, cs
000004A9 C1                  1168  	push ax
000004AA                     1169  	.LINE "D:/Sushmita/TENDER/2025/3_PHASE_METER_CODE/MEDCO_3PH_TENDER/Three-Phase-Base-MVVNL_Base-Code_010324_FOR_GUJRAT_UNI_47 -VER06_final - Copy/Application/MY_interrupts.c", 264
000004AA 8F0000              1170  	mov a, !LOWW(_RAM_INTRTCIC1_ISR+0x00002)
000004AD 9EFC                1171  	mov cs, a
000004AF FB0000              1172  	movw hl, !LOWW(_RAM_INTRTCIC1_ISR)
000004B2 61FA                1173  	call hl
000004B4 C0                  1174  	pop ax
000004B5 9EFC                1175  	mov cs, a
000004B7 60                  1176  	mov a, x
000004B8 9EFD                1177  	mov es, a
000004BA C6                  1178  	pop hl
000004BB C4                  1179  	pop de
000004BC C2                  1180  	pop bc
000004BD C0                  1181  	pop ax
000004BE 61FC                1182  	reti
000004C0                     1183  .LFE38:
000004C0                     1184  _intrtcic2_interrupt@1	.vector 0x0052
000004C0                     1185  	.TYPE _intrtcic2_interrupt@1,function,.LFE39-_intrtcic2_interrupt@1
000004C0                     1186  _intrtcic2_interrupt@1:
000004C0                     1187  	.STACK _intrtcic2_interrupt@1 = 14
000004C0                     1188  	.LINE "D:/Sushmita/TENDER/2025/3_PHASE_METER_CODE/MEDCO_3PH_TENDER/Three-Phase-Base-MVVNL_Base-Code_010324_FOR_GUJRAT_UNI_47 -VER06_final - Copy/Application/MY_interrupts.c", 267
000004C0 C1                  1189  	push ax
000004C1 C3                  1190  	push bc
000004C2 C5                  1191  	push de
000004C3 C7                  1192  	push hl
000004C4 8EFD                1193  	mov a, es
000004C6 70                  1194  	mov x, a
000004C7 8EFC                1195  	mov a, cs
000004C9 C1                  1196  	push ax
000004CA                     1197  	.LINE "D:/Sushmita/TENDER/2025/3_PHASE_METER_CODE/MEDCO_3PH_TENDER/Three-Phase-Base-MVVNL_Base-Code_010324_FOR_GUJRAT_UNI_47 -VER06_final - Copy/Application/MY_interrupts.c", 269
000004CA 8F0000              1198  	mov a, !LOWW(_RAM_INTRTCIC2_ISR+0x00002)
000004CD 9EFC                1199  	mov cs, a
000004CF FB0000              1200  	movw hl, !LOWW(_RAM_INTRTCIC2_ISR)
000004D2 61FA                1201  	call hl
000004D4 C0                  1202  	pop ax
000004D5 9EFC                1203  	mov cs, a
000004D7 60                  1204  	mov a, x
000004D8 9EFD                1205  	mov es, a
000004DA C6                  1206  	pop hl
000004DB C4                  1207  	pop de
000004DC C2                  1208  	pop bc
000004DD C0                  1209  	pop ax
000004DE 61FC                1210  	reti
000004E0                     1211  .LFE39:
000004E0                     1212  _inttm06_interrupt@1	.vector 0x0054
000004E0                     1213  	.TYPE _inttm06_interrupt@1,function,.LFE40-_inttm06_interrupt@1
000004E0                     1214  _inttm06_interrupt@1:
000004E0                     1215  	.STACK _inttm06_interrupt@1 = 14
000004E0                     1216  	.LINE "D:/Sushmita/TENDER/2025/3_PHASE_METER_CODE/MEDCO_3PH_TENDER/Three-Phase-Base-MVVNL_Base-Code_010324_FOR_GUJRAT_UNI_47 -VER06_final - Copy/Application/MY_interrupts.c", 272
000004E0 C1                  1217  	push ax
000004E1 C3                  1218  	push bc
000004E2 C5                  1219  	push de
000004E3 C7                  1220  	push hl
000004E4 8EFD                1221  	mov a, es
000004E6 70                  1222  	mov x, a
000004E7 8EFC                1223  	mov a, cs
000004E9 C1                  1224  	push ax
000004EA                     1225  	.LINE "D:/Sushmita/TENDER/2025/3_PHASE_METER_CODE/MEDCO_3PH_TENDER/Three-Phase-Base-MVVNL_Base-Code_010324_FOR_GUJRAT_UNI_47 -VER06_final - Copy/Application/MY_interrupts.c", 274
000004EA 8F0000              1226  	mov a, !LOWW(_RAM_INTTM06_ISR+0x00002)
000004ED 9EFC                1227  	mov cs, a
000004EF FB0000              1228  	movw hl, !LOWW(_RAM_INTTM06_ISR)
000004F2 61FA                1229  	call hl
000004F4 C0                  1230  	pop ax
000004F5 9EFC                1231  	mov cs, a
000004F7 60                  1232  	mov a, x
000004F8 9EFD                1233  	mov es, a
000004FA C6                  1234  	pop hl
000004FB C4                  1235  	pop de
000004FC C2                  1236  	pop bc
000004FD C0                  1237  	pop ax
000004FE 61FC                1238  	reti
00000500                     1239  .LFE40:
00000500                     1240  _inttm07_interrupt@1	.vector 0x0056
00000500                     1241  	.TYPE _inttm07_interrupt@1,function,.LFE41-_inttm07_interrupt@1
00000500                     1242  _inttm07_interrupt@1:
00000500                     1243  	.STACK _inttm07_interrupt@1 = 14
00000500                     1244  	.LINE "D:/Sushmita/TENDER/2025/3_PHASE_METER_CODE/MEDCO_3PH_TENDER/Three-Phase-Base-MVVNL_Base-Code_010324_FOR_GUJRAT_UNI_47 -VER06_final - Copy/Application/MY_interrupts.c", 277
00000500 C1                  1245  	push ax
00000501 C3                  1246  	push bc
00000502 C5                  1247  	push de
00000503 C7                  1248  	push hl
00000504 8EFD                1249  	mov a, es
00000506 70                  1250  	mov x, a
00000507 8EFC                1251  	mov a, cs
00000509 C1                  1252  	push ax
0000050A                     1253  	.LINE "D:/Sushmita/TENDER/2025/3_PHASE_METER_CODE/MEDCO_3PH_TENDER/Three-Phase-Base-MVVNL_Base-Code_010324_FOR_GUJRAT_UNI_47 -VER06_final - Copy/Application/MY_interrupts.c", 279
0000050A 8F0000              1254  	mov a, !LOWW(_RAM_INTTM07_ISR+0x00002)
0000050D 9EFC                1255  	mov cs, a
0000050F FB0000              1256  	movw hl, !LOWW(_RAM_INTTM07_ISR)
00000512 61FA                1257  	call hl
00000514 C0                  1258  	pop ax
00000515 9EFC                1259  	mov cs, a
00000517 60                  1260  	mov a, x
00000518 9EFD                1261  	mov es, a
0000051A C6                  1262  	pop hl
0000051B C4                  1263  	pop de
0000051C C2                  1264  	pop bc
0000051D C0                  1265  	pop ax
0000051E 61FC                1266  	reti
00000520                     1267  .LFE41:
00000520                     1268  _intit00_interrupt@1	.vector 0x0058
00000520                     1269  	.TYPE _intit00_interrupt@1,function,.LFE42-_intit00_interrupt@1
00000520                     1270  _intit00_interrupt@1:
00000520                     1271  	.STACK _intit00_interrupt@1 = 14
00000520                     1272  	.LINE "D:/Sushmita/TENDER/2025/3_PHASE_METER_CODE/MEDCO_3PH_TENDER/Three-Phase-Base-MVVNL_Base-Code_010324_FOR_GUJRAT_UNI_47 -VER06_final - Copy/Application/MY_interrupts.c", 282
00000520 C1                  1273  	push ax
00000521 C3                  1274  	push bc
00000522 C5                  1275  	push de
00000523 C7                  1276  	push hl
00000524 8EFD                1277  	mov a, es
00000526 70                  1278  	mov x, a
00000527 8EFC                1279  	mov a, cs
00000529 C1                  1280  	push ax
0000052A                     1281  	.LINE "D:/Sushmita/TENDER/2025/3_PHASE_METER_CODE/MEDCO_3PH_TENDER/Three-Phase-Base-MVVNL_Base-Code_010324_FOR_GUJRAT_UNI_47 -VER06_final - Copy/Application/MY_interrupts.c", 284
0000052A 8F0000              1282  	mov a, !LOWW(_RAM_INTIT00_ISR+0x00002)
0000052D 9EFC                1283  	mov cs, a
0000052F FB0000              1284  	movw hl, !LOWW(_RAM_INTIT00_ISR)
00000532 61FA                1285  	call hl
00000534 C0                  1286  	pop ax
00000535 9EFC                1287  	mov cs, a
00000537 60                  1288  	mov a, x
00000538 9EFD                1289  	mov es, a
0000053A C6                  1290  	pop hl
0000053B C4                  1291  	pop de
0000053C C2                  1292  	pop bc
0000053D C0                  1293  	pop ax
0000053E 61FC                1294  	reti
00000540                     1295  .LFE42:
00000540                     1296  _intit01_interrupt@1	.vector 0x005A
00000540                     1297  	.TYPE _intit01_interrupt@1,function,.LFE43-_intit01_interrupt@1
00000540                     1298  _intit01_interrupt@1:
00000540                     1299  	.STACK _intit01_interrupt@1 = 14
00000540                     1300  	.LINE "D:/Sushmita/TENDER/2025/3_PHASE_METER_CODE/MEDCO_3PH_TENDER/Three-Phase-Base-MVVNL_Base-Code_010324_FOR_GUJRAT_UNI_47 -VER06_final - Copy/Application/MY_interrupts.c", 286
00000540 C1                  1301  	push ax
00000541 C3                  1302  	push bc
00000542 C5                  1303  	push de
00000543 C7                  1304  	push hl
00000544 8EFD                1305  	mov a, es
00000546 70                  1306  	mov x, a
00000547 8EFC                1307  	mov a, cs
00000549 C1                  1308  	push ax
0000054A                     1309  	.LINE "D:/Sushmita/TENDER/2025/3_PHASE_METER_CODE/MEDCO_3PH_TENDER/Three-Phase-Base-MVVNL_Base-Code_010324_FOR_GUJRAT_UNI_47 -VER06_final - Copy/Application/MY_interrupts.c", 288
0000054A 8F0000              1310  	mov a, !LOWW(_RAM_INTIT01_ISR+0x00002)
0000054D 9EFC                1311  	mov cs, a
0000054F FB0000              1312  	movw hl, !LOWW(_RAM_INTIT01_ISR)
00000552 61FA                1313  	call hl
00000554 C0                  1314  	pop ax
00000555 9EFC                1315  	mov cs, a
00000557 60                  1316  	mov a, x
00000558 9EFD                1317  	mov es, a
0000055A C6                  1318  	pop hl
0000055B C4                  1319  	pop de
0000055C C2                  1320  	pop bc
0000055D C0                  1321  	pop ax
0000055E 61FC                1322  	reti
00000560                     1323  .LFE43:
00000560                     1324  _intsre3_interrupt@1	.vector 0x005C
00000560                     1325  	.TYPE _intsre3_interrupt@1,function,.LFE44-_intsre3_interrupt@1
00000560                     1326  _intsre3_interrupt@1:
00000560                     1327  	.STACK _intsre3_interrupt@1 = 14
00000560                     1328  	.LINE "D:/Sushmita/TENDER/2025/3_PHASE_METER_CODE/MEDCO_3PH_TENDER/Three-Phase-Base-MVVNL_Base-Code_010324_FOR_GUJRAT_UNI_47 -VER06_final - Copy/Application/MY_interrupts.c", 291
00000560 C1                  1329  	push ax
00000561 C3                  1330  	push bc
00000562 C5                  1331  	push de
00000563 C7                  1332  	push hl
00000564 8EFD                1333  	mov a, es
00000566 70                  1334  	mov x, a
00000567 8EFC                1335  	mov a, cs
00000569 C1                  1336  	push ax
0000056A                     1337  	.LINE "D:/Sushmita/TENDER/2025/3_PHASE_METER_CODE/MEDCO_3PH_TENDER/Three-Phase-Base-MVVNL_Base-Code_010324_FOR_GUJRAT_UNI_47 -VER06_final - Copy/Application/MY_interrupts.c", 293
0000056A 8F0000              1338  	mov a, !LOWW(_RAM_INTSRE3_ISR+0x00002)
0000056D 9EFC                1339  	mov cs, a
0000056F FB0000              1340  	movw hl, !LOWW(_RAM_INTSRE3_ISR)
00000572 61FA                1341  	call hl
00000574 C0                  1342  	pop ax
00000575 9EFC                1343  	mov cs, a
00000577 60                  1344  	mov a, x
00000578 9EFD                1345  	mov es, a
0000057A C6                  1346  	pop hl
0000057B C4                  1347  	pop de
0000057C C2                  1348  	pop bc
0000057D C0                  1349  	pop ax
0000057E 61FC                1350  	reti
00000580                     1351  .LFE44:
00000580                     1352  _intmaclof_interrupt@1	.vector 0x005E
00000580                     1353  	.TYPE _intmaclof_interrupt@1,function,.LFE45-_intmaclof_interrupt@1
00000580                     1354  _intmaclof_interrupt@1:
00000580                     1355  	.STACK _intmaclof_interrupt@1 = 14
00000580                     1356  	.LINE "D:/Sushmita/TENDER/2025/3_PHASE_METER_CODE/MEDCO_3PH_TENDER/Three-Phase-Base-MVVNL_Base-Code_010324_FOR_GUJRAT_UNI_47 -VER06_final - Copy/Application/MY_interrupts.c", 296
00000580 C1                  1357  	push ax
00000581 C3                  1358  	push bc
00000582 C5                  1359  	push de
00000583 C7                  1360  	push hl
00000584 8EFD                1361  	mov a, es
00000586 70                  1362  	mov x, a
00000587 8EFC                1363  	mov a, cs
00000589 C1                  1364  	push ax
0000058A                     1365  	.LINE "D:/Sushmita/TENDER/2025/3_PHASE_METER_CODE/MEDCO_3PH_TENDER/Three-Phase-Base-MVVNL_Base-Code_010324_FOR_GUJRAT_UNI_47 -VER06_final - Copy/Application/MY_interrupts.c", 298
0000058A 8F0000              1366  	mov a, !LOWW(_RAM_INTMACLOF_ISR+0x00002)
0000058D 9EFC                1367  	mov cs, a
0000058F FB0000              1368  	movw hl, !LOWW(_RAM_INTMACLOF_ISR)
00000592 61FA                1369  	call hl
00000594 C0                  1370  	pop ax
00000595 9EFC                1371  	mov cs, a
00000597 60                  1372  	mov a, x
00000598 9EFD                1373  	mov es, a
0000059A C6                  1374  	pop hl
0000059B C4                  1375  	pop de
0000059C C2                  1376  	pop bc
0000059D C0                  1377  	pop ax
0000059E 61FC                1378  	reti
000005A0                     1379  .LFE45:
000005A0                     1380  _intosdc_interrupt@1	.vector 0x0060
000005A0                     1381  	.TYPE _intosdc_interrupt@1,function,.LFE46-_intosdc_interrupt@1
000005A0                     1382  _intosdc_interrupt@1:
000005A0                     1383  	.STACK _intosdc_interrupt@1 = 14
000005A0                     1384  	.LINE "D:/Sushmita/TENDER/2025/3_PHASE_METER_CODE/MEDCO_3PH_TENDER/Three-Phase-Base-MVVNL_Base-Code_010324_FOR_GUJRAT_UNI_47 -VER06_final - Copy/Application/MY_interrupts.c", 301
000005A0 C1                  1385  	push ax
000005A1 C3                  1386  	push bc
000005A2 C5                  1387  	push de
000005A3 C7                  1388  	push hl
000005A4 8EFD                1389  	mov a, es
000005A6 70                  1390  	mov x, a
000005A7 8EFC                1391  	mov a, cs
000005A9 C1                  1392  	push ax
000005AA                     1393  	.LINE "D:/Sushmita/TENDER/2025/3_PHASE_METER_CODE/MEDCO_3PH_TENDER/Three-Phase-Base-MVVNL_Base-Code_010324_FOR_GUJRAT_UNI_47 -VER06_final - Copy/Application/MY_interrupts.c", 303
000005AA 8F0000              1394  	mov a, !LOWW(_RAM_INTOSDC_ISR+0x00002)
000005AD 9EFC                1395  	mov cs, a
000005AF FB0000              1396  	movw hl, !LOWW(_RAM_INTOSDC_ISR)
000005B2 61FA                1397  	call hl
000005B4 C0                  1398  	pop ax
000005B5 9EFC                1399  	mov cs, a
000005B7 60                  1400  	mov a, x
000005B8 9EFD                1401  	mov es, a
000005BA C6                  1402  	pop hl
000005BB C4                  1403  	pop de
000005BC C2                  1404  	pop bc
000005BD C0                  1405  	pop ax
000005BE 61FC                1406  	reti
000005C0                     1407  .LFE46:
000005C0                     1408  _intfl_interrupt@1	.vector 0x0062
000005C0                     1409  	.TYPE _intfl_interrupt@1,function,.LFE47-_intfl_interrupt@1
000005C0                     1410  _intfl_interrupt@1:
000005C0                     1411  	.STACK _intfl_interrupt@1 = 14
000005C0                     1412  	.LINE "D:/Sushmita/TENDER/2025/3_PHASE_METER_CODE/MEDCO_3PH_TENDER/Three-Phase-Base-MVVNL_Base-Code_010324_FOR_GUJRAT_UNI_47 -VER06_final - Copy/Application/MY_interrupts.c", 306
000005C0 C1                  1413  	push ax
000005C1 C3                  1414  	push bc
000005C2 C5                  1415  	push de
000005C3 C7                  1416  	push hl
000005C4 8EFD                1417  	mov a, es
000005C6 70                  1418  	mov x, a
000005C7 8EFC                1419  	mov a, cs
000005C9 C1                  1420  	push ax
000005CA                     1421  	.LINE "D:/Sushmita/TENDER/2025/3_PHASE_METER_CODE/MEDCO_3PH_TENDER/Three-Phase-Base-MVVNL_Base-Code_010324_FOR_GUJRAT_UNI_47 -VER06_final - Copy/Application/MY_interrupts.c", 308
000005CA 8F0000              1422  	mov a, !LOWW(_RAM_INTFL_ISR+0x00002)
000005CD 9EFC                1423  	mov cs, a
000005CF FB0000              1424  	movw hl, !LOWW(_RAM_INTFL_ISR)
000005D2 61FA                1425  	call hl
000005D4 C0                  1426  	pop ax
000005D5 9EFC                1427  	mov cs, a
000005D7 60                  1428  	mov a, x
000005D8 9EFD                1429  	mov es, a
000005DA C6                  1430  	pop hl
000005DB C4                  1431  	pop de
000005DC C2                  1432  	pop bc
000005DD C0                  1433  	pop ax
000005DE 61FC                1434  	reti
000005E0                     1435  .LFE47:
000005E0                     1436  _intdsadzc0_interrupt@1	.vector 0x0064
000005E0                     1437  	.TYPE _intdsadzc0_interrupt@1,function,.LFE48-_intdsadzc0_interrupt@1
000005E0                     1438  _intdsadzc0_interrupt@1:
000005E0                     1439  	.STACK _intdsadzc0_interrupt@1 = 14
000005E0                     1440  	.LINE "D:/Sushmita/TENDER/2025/3_PHASE_METER_CODE/MEDCO_3PH_TENDER/Three-Phase-Base-MVVNL_Base-Code_010324_FOR_GUJRAT_UNI_47 -VER06_final - Copy/Application/MY_interrupts.c", 311
000005E0 C1                  1441  	push ax
000005E1 C3                  1442  	push bc
000005E2 C5                  1443  	push de
000005E3 C7                  1444  	push hl
000005E4 8EFD                1445  	mov a, es
000005E6 70                  1446  	mov x, a
000005E7 8EFC                1447  	mov a, cs
000005E9 C1                  1448  	push ax
000005EA                     1449  	.LINE "D:/Sushmita/TENDER/2025/3_PHASE_METER_CODE/MEDCO_3PH_TENDER/Three-Phase-Base-MVVNL_Base-Code_010324_FOR_GUJRAT_UNI_47 -VER06_final - Copy/Application/MY_interrupts.c", 313
000005EA 8F0000              1450  	mov a, !LOWW(_RAM_INTDSADZC0_ISR+0x00002)
000005ED 9EFC                1451  	mov cs, a
000005EF FB0000              1452  	movw hl, !LOWW(_RAM_INTDSADZC0_ISR)
000005F2 61FA                1453  	call hl
000005F4 C0                  1454  	pop ax
000005F5 9EFC                1455  	mov cs, a
000005F7 60                  1456  	mov a, x
000005F8 9EFD                1457  	mov es, a
000005FA C6                  1458  	pop hl
000005FB C4                  1459  	pop de
000005FC C2                  1460  	pop bc
000005FD C0                  1461  	pop ax
000005FE 61FC                1462  	reti
00000600                     1463  .LFE48:
00000600                     1464  _intdsadzc1_interrupt@1	.vector 0x0066
00000600                     1465  	.TYPE _intdsadzc1_interrupt@1,function,.LFE49-_intdsadzc1_interrupt@1
00000600                     1466  _intdsadzc1_interrupt@1:
00000600                     1467  	.STACK _intdsadzc1_interrupt@1 = 14
00000600                     1468  	.LINE "D:/Sushmita/TENDER/2025/3_PHASE_METER_CODE/MEDCO_3PH_TENDER/Three-Phase-Base-MVVNL_Base-Code_010324_FOR_GUJRAT_UNI_47 -VER06_final - Copy/Application/MY_interrupts.c", 316
00000600 C1                  1469  	push ax
00000601 C3                  1470  	push bc
00000602 C5                  1471  	push de
00000603 C7                  1472  	push hl
00000604 8EFD                1473  	mov a, es
00000606 70                  1474  	mov x, a
00000607 8EFC                1475  	mov a, cs
00000609 C1                  1476  	push ax
0000060A                     1477  	.LINE "D:/Sushmita/TENDER/2025/3_PHASE_METER_CODE/MEDCO_3PH_TENDER/Three-Phase-Base-MVVNL_Base-Code_010324_FOR_GUJRAT_UNI_47 -VER06_final - Copy/Application/MY_interrupts.c", 318
0000060A 8F0000              1478  	mov a, !LOWW(_RAM_INTDSADZC1_ISR+0x00002)
0000060D 9EFC                1479  	mov cs, a
0000060F FB0000              1480  	movw hl, !LOWW(_RAM_INTDSADZC1_ISR)
00000612 61FA                1481  	call hl
00000614 C0                  1482  	pop ax
00000615 9EFC                1483  	mov cs, a
00000617 60                  1484  	mov a, x
00000618 9EFD                1485  	mov es, a
0000061A C6                  1486  	pop hl
0000061B C4                  1487  	pop de
0000061C C2                  1488  	pop bc
0000061D C0                  1489  	pop ax
0000061E 61FC                1490  	reti
00000620                     1491  .LFE49:
00000620                     1492  _intit10_interrupt@1	.vector 0x0068
00000620                     1493  	.TYPE _intit10_interrupt@1,function,.LFE50-_intit10_interrupt@1
00000620                     1494  _intit10_interrupt@1:
00000620                     1495  	.STACK _intit10_interrupt@1 = 14
00000620                     1496  	.LINE "D:/Sushmita/TENDER/2025/3_PHASE_METER_CODE/MEDCO_3PH_TENDER/Three-Phase-Base-MVVNL_Base-Code_010324_FOR_GUJRAT_UNI_47 -VER06_final - Copy/Application/MY_interrupts.c", 321
00000620 C1                  1497  	push ax
00000621 C3                  1498  	push bc
00000622 C5                  1499  	push de
00000623 C7                  1500  	push hl
00000624 8EFD                1501  	mov a, es
00000626 70                  1502  	mov x, a
00000627 8EFC                1503  	mov a, cs
00000629 C1                  1504  	push ax
0000062A                     1505  	.LINE "D:/Sushmita/TENDER/2025/3_PHASE_METER_CODE/MEDCO_3PH_TENDER/Three-Phase-Base-MVVNL_Base-Code_010324_FOR_GUJRAT_UNI_47 -VER06_final - Copy/Application/MY_interrupts.c", 323
0000062A 8F0000              1506  	mov a, !LOWW(_RAM_INTIT10_ISR+0x00002)
0000062D 9EFC                1507  	mov cs, a
0000062F FB0000              1508  	movw hl, !LOWW(_RAM_INTIT10_ISR)
00000632 61FA                1509  	call hl
00000634 C0                  1510  	pop ax
00000635 9EFC                1511  	mov cs, a
00000637 60                  1512  	mov a, x
00000638 9EFD                1513  	mov es, a
0000063A C6                  1514  	pop hl
0000063B C4                  1515  	pop de
0000063C C2                  1516  	pop bc
0000063D C0                  1517  	pop ax
0000063E 61FC                1518  	reti
00000640                     1519  .LFE50:
00000640                     1520  _intit11_interrupt@1	.vector 0x006A
00000640                     1521  	.TYPE _intit11_interrupt@1,function,.LFE51-_intit11_interrupt@1
00000640                     1522  _intit11_interrupt@1:
00000640                     1523  	.STACK _intit11_interrupt@1 = 14
00000640                     1524  	.LINE "D:/Sushmita/TENDER/2025/3_PHASE_METER_CODE/MEDCO_3PH_TENDER/Three-Phase-Base-MVVNL_Base-Code_010324_FOR_GUJRAT_UNI_47 -VER06_final - Copy/Application/MY_interrupts.c", 326
00000640 C1                  1525  	push ax
00000641 C3                  1526  	push bc
00000642 C5                  1527  	push de
00000643 C7                  1528  	push hl
00000644 8EFD                1529  	mov a, es
00000646 70                  1530  	mov x, a
00000647 8EFC                1531  	mov a, cs
00000649 C1                  1532  	push ax
0000064A                     1533  	.LINE "D:/Sushmita/TENDER/2025/3_PHASE_METER_CODE/MEDCO_3PH_TENDER/Three-Phase-Base-MVVNL_Base-Code_010324_FOR_GUJRAT_UNI_47 -VER06_final - Copy/Application/MY_interrupts.c", 328
0000064A 8F0000              1534  	mov a, !LOWW(_RAM_INTIT11_ISR+0x00002)
0000064D 9EFC                1535  	mov cs, a
0000064F FB0000              1536  	movw hl, !LOWW(_RAM_INTIT11_ISR)
00000652 61FA                1537  	call hl
00000654 C0                  1538  	pop ax
00000655 9EFC                1539  	mov cs, a
00000657 60                  1540  	mov a, x
00000658 9EFD                1541  	mov es, a
0000065A C6                  1542  	pop hl
0000065B C4                  1543  	pop de
0000065C C2                  1544  	pop bc
0000065D C0                  1545  	pop ax
0000065E 61FC                1546  	reti
00000660                     1547  .LFE51:
00000660                     1548  _intlvdvdd_interrupt@1	.vector 0x006C
00000660                     1549  	.TYPE _intlvdvdd_interrupt@1,function,.LFE52-_intlvdvdd_interrupt@1
00000660                     1550  _intlvdvdd_interrupt@1:
00000660                     1551  	.STACK _intlvdvdd_interrupt@1 = 14
00000660                     1552  	.LINE "D:/Sushmita/TENDER/2025/3_PHASE_METER_CODE/MEDCO_3PH_TENDER/Three-Phase-Base-MVVNL_Base-Code_010324_FOR_GUJRAT_UNI_47 -VER06_final - Copy/Application/MY_interrupts.c", 331
00000660 C1                  1553  	push ax
00000661 C3                  1554  	push bc
00000662 C5                  1555  	push de
00000663 C7                  1556  	push hl
00000664 8EFD                1557  	mov a, es
00000666 70                  1558  	mov x, a
00000667 8EFC                1559  	mov a, cs
00000669 C1                  1560  	push ax
0000066A                     1561  	.LINE "D:/Sushmita/TENDER/2025/3_PHASE_METER_CODE/MEDCO_3PH_TENDER/Three-Phase-Base-MVVNL_Base-Code_010324_FOR_GUJRAT_UNI_47 -VER06_final - Copy/Application/MY_interrupts.c", 333
0000066A 8F0000              1562  	mov a, !LOWW(_RAM_INTLVDVDD_ISR+0x00002)
0000066D 9EFC                1563  	mov cs, a
0000066F FB0000              1564  	movw hl, !LOWW(_RAM_INTLVDVDD_ISR)
00000672 61FA                1565  	call hl
00000674 C0                  1566  	pop ax
00000675 9EFC                1567  	mov cs, a
00000677 60                  1568  	mov a, x
00000678 9EFD                1569  	mov es, a
0000067A C6                  1570  	pop hl
0000067B C4                  1571  	pop de
0000067C C2                  1572  	pop bc
0000067D C0                  1573  	pop ax
0000067E 61FC                1574  	reti
00000680                     1575  .LFE52:
00000680                     1576  _intlvdvbat_interrupt@1	.vector 0x006E
00000680                     1577  	.TYPE _intlvdvbat_interrupt@1,function,.LFE53-_intlvdvbat_interrupt@1
00000680                     1578  _intlvdvbat_interrupt@1:
00000680                     1579  	.STACK _intlvdvbat_interrupt@1 = 14
00000680                     1580  	.LINE "D:/Sushmita/TENDER/2025/3_PHASE_METER_CODE/MEDCO_3PH_TENDER/Three-Phase-Base-MVVNL_Base-Code_010324_FOR_GUJRAT_UNI_47 -VER06_final - Copy/Application/MY_interrupts.c", 336
00000680 C1                  1581  	push ax
00000681 C3                  1582  	push bc
00000682 C5                  1583  	push de
00000683 C7                  1584  	push hl
00000684 8EFD                1585  	mov a, es
00000686 70                  1586  	mov x, a
00000687 8EFC                1587  	mov a, cs
00000689 C1                  1588  	push ax
0000068A                     1589  	.LINE "D:/Sushmita/TENDER/2025/3_PHASE_METER_CODE/MEDCO_3PH_TENDER/Three-Phase-Base-MVVNL_Base-Code_010324_FOR_GUJRAT_UNI_47 -VER06_final - Copy/Application/MY_interrupts.c", 338
0000068A 8F0000              1590  	mov a, !LOWW(_RAM_INTLVDVBAT_ISR+0x00002)
0000068D 9EFC                1591  	mov cs, a
0000068F FB0000              1592  	movw hl, !LOWW(_RAM_INTLVDVBAT_ISR)
00000692 61FA                1593  	call hl
00000694 C0                  1594  	pop ax
00000695 9EFC                1595  	mov cs, a
00000697 60                  1596  	mov a, x
00000698 9EFD                1597  	mov es, a
0000069A C6                  1598  	pop hl
0000069B C4                  1599  	pop de
0000069C C2                  1600  	pop bc
0000069D C0                  1601  	pop ax
0000069E 61FC                1602  	reti
000006A0                     1603  .LFE53:
000006A0                     1604  _intlvdvrtc_interrupt@1	.vector 0x0070
000006A0                     1605  	.TYPE _intlvdvrtc_interrupt@1,function,.LFE54-_intlvdvrtc_interrupt@1
000006A0                     1606  _intlvdvrtc_interrupt@1:
000006A0                     1607  	.STACK _intlvdvrtc_interrupt@1 = 14
000006A0                     1608  	.LINE "D:/Sushmita/TENDER/2025/3_PHASE_METER_CODE/MEDCO_3PH_TENDER/Three-Phase-Base-MVVNL_Base-Code_010324_FOR_GUJRAT_UNI_47 -VER06_final - Copy/Application/MY_interrupts.c", 341
000006A0 C1                  1609  	push ax
000006A1 C3                  1610  	push bc
000006A2 C5                  1611  	push de
000006A3 C7                  1612  	push hl
000006A4 8EFD                1613  	mov a, es
000006A6 70                  1614  	mov x, a
000006A7 8EFC                1615  	mov a, cs
000006A9 C1                  1616  	push ax
000006AA                     1617  	.LINE "D:/Sushmita/TENDER/2025/3_PHASE_METER_CODE/MEDCO_3PH_TENDER/Three-Phase-Base-MVVNL_Base-Code_010324_FOR_GUJRAT_UNI_47 -VER06_final - Copy/Application/MY_interrupts.c", 343
000006AA 8F0000              1618  	mov a, !LOWW(_RAM_INTLVDVRTC_ISR+0x00002)
000006AD 9EFC                1619  	mov cs, a
000006AF FB0000              1620  	movw hl, !LOWW(_RAM_INTLVDVRTC_ISR)
000006B2 61FA                1621  	call hl
000006B4 C0                  1622  	pop ax
000006B5 9EFC                1623  	mov cs, a
000006B7 60                  1624  	mov a, x
000006B8 9EFD                1625  	mov es, a
000006BA C6                  1626  	pop hl
000006BB C4                  1627  	pop de
000006BC C2                  1628  	pop bc
000006BD C0                  1629  	pop ax
000006BE 61FC                1630  	reti
000006C0                     1631  .LFE54:
000006C0                     1632  _intlvdexlvd_interrupt@1	.vector 0x0072
000006C0                     1633  	.TYPE _intlvdexlvd_interrupt@1,function,.LFE55-_intlvdexlvd_interrupt@1
000006C0                     1634  _intlvdexlvd_interrupt@1:
000006C0                     1635  	.STACK _intlvdexlvd_interrupt@1 = 14
000006C0                     1636  	.LINE "D:/Sushmita/TENDER/2025/3_PHASE_METER_CODE/MEDCO_3PH_TENDER/Three-Phase-Base-MVVNL_Base-Code_010324_FOR_GUJRAT_UNI_47 -VER06_final - Copy/Application/MY_interrupts.c", 346
000006C0 C1                  1637  	push ax
000006C1 C3                  1638  	push bc
000006C2 C5                  1639  	push de
000006C3 C7                  1640  	push hl
000006C4 8EFD                1641  	mov a, es
000006C6 70                  1642  	mov x, a
000006C7 8EFC                1643  	mov a, cs
000006C9 C1                  1644  	push ax
000006CA                     1645  	.LINE "D:/Sushmita/TENDER/2025/3_PHASE_METER_CODE/MEDCO_3PH_TENDER/Three-Phase-Base-MVVNL_Base-Code_010324_FOR_GUJRAT_UNI_47 -VER06_final - Copy/Application/MY_interrupts.c", 348
000006CA 8F0000              1646  	mov a, !LOWW(_RAM_INTLVDEXLVD_ISR+0x00002)
000006CD 9EFC                1647  	mov cs, a
000006CF FB0000              1648  	movw hl, !LOWW(_RAM_INTLVDEXLVD_ISR)
000006D2 61FA                1649  	call hl
000006D4 C0                  1650  	pop ax
000006D5 9EFC                1651  	mov cs, a
000006D7 60                  1652  	mov a, x
000006D8 9EFD                1653  	mov es, a
000006DA C6                  1654  	pop hl
000006DB C4                  1655  	pop de
000006DC C2                  1656  	pop bc
000006DD C0                  1657  	pop ax
000006DE 61FC                1658  	reti
000006E0                     1659  .LFE55:

Section List
Attr     Size                Name

TEXT               1760 (000006E0) .text

Command Line Parameter
Files (x86)\Renesas Electronics\CS+\CC\CC-RL\V1.12.00\Bin\asrl.exe" @C:\Users\sys_f\AppData\Local\Temp\$ccrl\MY_interrupts.asm.cmd 

Command File Parameter
-define=__RENESAS_VERSION__=0x01120000 -cpu=S3 -include="D:\Sushmita\TENDER\2025\3_PHASE_METER_CODE\MEDCO_3PH_TENDER\Three-Phase-Base-MVVNL_Base-Code_010324_FOR_GUJRAT_UNI_47 -VER06_final - Copy\Application\Release_BQFR" -include="D:\Sushmita\TENDER\2025\3_PHASE_METER_CODE\MEDCO_3PH_TENDER\Three-Phase-Base-MVVNL_Base-Code_010324_FOR_GUJRAT_UNI_47 -VER06_final - Copy\Application\rl78i1c\application\dlms\physical" -include="D:\Sushmita\TENDER\2025\3_PHASE_METER_CODE\MEDCO_3PH_TENDER\Three-Phase-Base-MVVNL_Base-Code_010324_FOR_GUJRAT_UNI_47 -VER06_final - Copy\Application\rl78i1c\application\dlms\objects" -include="D:\Sushmita\TENDER\2025\3_PHASE_METER_CODE\MEDCO_3PH_TENDER\Three-Phase-Base-MVVNL_Base-Code_010324_FOR_GUJRAT_UNI_47 -VER06_final - Copy\Application\rl78i1c\application\dlms\meter_app\hash" -include="D:\Sushmita\TENDER\2025\3_PHASE_METER_CODE\MEDCO_3PH_TENDER\Three-Phase-Base-MVVNL_Base-Code_010324_FOR_GUJRAT_UNI_47 -VER06_final - Copy\Application\rl78i1c\application\dlms\meter_app\aes" -include="D:\Sushmita\TENDER\2025\3_PHASE_METER_CODE\MEDCO_3PH_TENDER\Three-Phase-Base-MVVNL_Base-Code_010324_FOR_GUJRAT_UNI_47 -VER06_final - Copy\Application\rl78i1c\application\dlms\meter_app" -include="D:\Sushmita\TENDER\2025\3_PHASE_METER_CODE\MEDCO_3PH_TENDER\Three-Phase-Base-MVVNL_Base-Code_010324_FOR_GUJRAT_UNI_47 -VER06_final - Copy\Application\rl78i1c\application\dlms" -include="D:\Sushmita\TENDER\2025\3_PHASE_METER_CODE\MEDCO_3PH_TENDER\Three-Phase-Base-MVVNL_Base-Code_010324_FOR_GUJRAT_UNI_47 -VER06_final - Copy\Application\rl78i1c\application" -include="D:\Sushmita\TENDER\2025\3_PHASE_METER_CODE\MEDCO_3PH_TENDER\Three-Phase-Base-MVVNL_Base-Code_010324_FOR_GUJRAT_UNI_47 -VER06_final - Copy\Application\rl78i1c\application\debug\loadtest" -include="D:\Sushmita\TENDER\2025\3_PHASE_METER_CODE\MEDCO_3PH_TENDER\Three-Phase-Base-MVVNL_Base-Code_010324_FOR_GUJRAT_UNI_47 -VER06_final - Copy\Application\rl78i1c\application\services\64bit_process" -include="D:\Sushmita\TENDER\2025\3_PHASE_METER_CODE\MEDCO_3PH_TENDER\Three-Phase-Base-MVVNL_Base-Code_010324_FOR_GUJRAT_UNI_47 -VER06_final - Copy\Application" -include="D:\Sushmita\TENDER\2025\3_PHASE_METER_CODE\MEDCO_3PH_TENDER\Three-Phase-Base-MVVNL_Base-Code_010324_FOR_GUJRAT_UNI_47 -VER06_final - Copy\Application\rl78i1c\wrapper\core\sw\filter\config" -include="D:\Sushmita\TENDER\2025\3_PHASE_METER_CODE\MEDCO_3PH_TENDER\Three-Phase-Base-MVVNL_Base-Code_010324_FOR_GUJRAT_UNI_47 -VER06_final - Copy\Application\rl78i1c\wrapper\core\sw\filter\include" -include="D:\Sushmita\TENDER\2025\3_PHASE_METER_CODE\MEDCO_3PH_TENDER\Three-Phase-Base-MVVNL_Base-Code_010324_FOR_GUJRAT_UNI_47 -VER06_final - Copy\Application\rl78i1c\application\powermgmt" -include="D:\Sushmita\TENDER\2025\3_PHASE_METER_CODE\MEDCO_3PH_TENDER\Three-Phase-Base-MVVNL_Base-Code_010324_FOR_GUJRAT_UNI_47 -VER06_final - Copy\Application\rl78i1c\application\storage\meterdata" -include="D:\Sushmita\TENDER\2025\3_PHASE_METER_CODE\MEDCO_3PH_TENDER\Three-Phase-Base-MVVNL_Base-Code_010324_FOR_GUJRAT_UNI_47 -VER06_final - Copy\Application\rl78i1c\application\storage\config" -include="D:\Sushmita\TENDER\2025\3_PHASE_METER_CODE\MEDCO_3PH_TENDER\Three-Phase-Base-MVVNL_Base-Code_010324_FOR_GUJRAT_UNI_47 -VER06_final - Copy\Application\rl78i1c\application\dataflash\fdl\incrl78" -include="D:\Sushmita\TENDER\2025\3_PHASE_METER_CODE\MEDCO_3PH_TENDER\Three-Phase-Base-MVVNL_Base-Code_010324_FOR_GUJRAT_UNI_47 -VER06_final - Copy\Application\rl78i1c\application\dataflash" -include="D:\Sushmita\TENDER\2025\3_PHASE_METER_CODE\MEDCO_3PH_TENDER\Three-Phase-Base-MVVNL_Base-Code_010324_FOR_GUJRAT_UNI_47 -VER06_final - Copy\Application\rl78i1c\application\services" -include="D:\Sushmita\TENDER\2025\3_PHASE_METER_CODE\MEDCO_3PH_TENDER\Three-Phase-Base-MVVNL_Base-Code_010324_FOR_GUJRAT_UNI_47 -VER06_final - Copy\Application\rl78i1c\application\interpreter\mlsHeaders" -include="D:\Sushmita\TENDER\2025\3_PHASE_METER_CODE\MEDCO_3PH_TENDER\Three-Phase-Base-MVVNL_Base-Code_010324_FOR_GUJRAT_UNI_47 -VER06_final - Copy\Application\rl78i1c\application\interpreter\mlsCIHandler" -include="D:\Sushmita\TENDER\2025\3_PHASE_METER_CODE\MEDCO_3PH_TENDER\Three-Phase-Base-MVVNL_Base-Code_010324_FOR_GUJRAT_UNI_47 -VER06_final - Copy\Application\rl78i1c\application\interpreter\mlsCIEng" -include="D:\Sushmita\TENDER\2025\3_PHASE_METER_CODE\MEDCO_3PH_TENDER\Three-Phase-Base-MVVNL_Base-Code_010324_FOR_GUJRAT_UNI_47 -VER06_final - Copy\Application\rl78i1c\application\interpreter\mlsCIComm" -include="D:\Sushmita\TENDER\2025\3_PHASE_METER_CODE\MEDCO_3PH_TENDER\Three-Phase-Base-MVVNL_Base-Code_010324_FOR_GUJRAT_UNI_47 -VER06_final - Copy\Application\rl78i1c\application\interpreter\mlsCIApp" -include="D:\Sushmita\TENDER\2025\3_PHASE_METER_CODE\MEDCO_3PH_TENDER\Three-Phase-Base-MVVNL_Base-Code_010324_FOR_GUJRAT_UNI_47 -VER06_final - Copy\Application\rl78i1c\driver\mcu" -include="D:\Sushmita\TENDER\2025\3_PHASE_METER_CODE\MEDCO_3PH_TENDER\Three-Phase-Base-MVVNL_Base-Code_010324_FOR_GUJRAT_UNI_47 -VER06_final - Copy\Application\rl78i1c\application\calibration" -include="D:\Sushmita\TENDER\2025\3_PHASE_METER_CODE\MEDCO_3PH_TENDER\Three-Phase-Base-MVVNL_Base-Code_010324_FOR_GUJRAT_UNI_47 -VER06_final - Copy\Application\rl78i1c\application\debug" -include="D:\Sushmita\TENDER\2025\3_PHASE_METER_CODE\MEDCO_3PH_TENDER\Three-Phase-Base-MVVNL_Base-Code_010324_FOR_GUJRAT_UNI_47 -VER06_final - Copy\Application\rl78i1c\application\display&button" -include="D:\Sushmita\TENDER\2025\3_PHASE_METER_CODE\MEDCO_3PH_TENDER\Three-Phase-Base-MVVNL_Base-Code_010324_FOR_GUJRAT_UNI_47 -VER06_final - Copy\Application\rl78i1c\application\display&button\lcd" -include="D:\Sushmita\TENDER\2025\3_PHASE_METER_CODE\MEDCO_3PH_TENDER\Three-Phase-Base-MVVNL_Base-Code_010324_FOR_GUJRAT_UNI_47 -VER06_final - Copy\Application\rl78i1c\application\eeprom" -include="D:\Sushmita\TENDER\2025\3_PHASE_METER_CODE\MEDCO_3PH_TENDER\Three-Phase-Base-MVVNL_Base-Code_010324_FOR_GUJRAT_UNI_47 -VER06_final - Copy\Application\rl78i1c\application\event" -include="D:\Sushmita\TENDER\2025\3_PHASE_METER_CODE\MEDCO_3PH_TENDER\Three-Phase-Base-MVVNL_Base-Code_010324_FOR_GUJRAT_UNI_47 -VER06_final - Copy\Application\rl78i1c\application\startup" -include="D:\Sushmita\TENDER\2025\3_PHASE_METER_CODE\MEDCO_3PH_TENDER\Three-Phase-Base-MVVNL_Base-Code_010324_FOR_GUJRAT_UNI_47 -VER06_final - Copy\Application\rl78i1c\application\storage" -include="D:\Sushmita\TENDER\2025\3_PHASE_METER_CODE\MEDCO_3PH_TENDER\Three-Phase-Base-MVVNL_Base-Code_010324_FOR_GUJRAT_UNI_47 -VER06_final - Copy\Application\rl78i1c\middleware\headers" -include="D:\Sushmita\TENDER\2025\3_PHASE_METER_CODE\MEDCO_3PH_TENDER\Three-Phase-Base-MVVNL_Base-Code_010324_FOR_GUJRAT_UNI_47 -VER06_final - Copy\Application\rl78i1c\middleware\plugin" -include="D:\Sushmita\TENDER\2025\3_PHASE_METER_CODE\MEDCO_3PH_TENDER\Three-Phase-Base-MVVNL_Base-Code_010324_FOR_GUJRAT_UNI_47 -VER06_final - Copy\Application\rl78i1c\wrapper\user" -include="D:\Sushmita\TENDER\2025\3_PHASE_METER_CODE\MEDCO_3PH_TENDER\Three-Phase-Base-MVVNL_Base-Code_010324_FOR_GUJRAT_UNI_47 -VER06_final - Copy\Application\rl78i1c\wrapper\core\sw" -include="D:\Sushmita\TENDER\2025\3_PHASE_METER_CODE\MEDCO_3PH_TENDER\Three-Phase-Base-MVVNL_Base-Code_010324_FOR_GUJRAT_UNI_47 -VER06_final - Copy\Application\rl78i1c\wrapper\core\shared" -include="D:\Sushmita\TENDER\2025\3_PHASE_METER_CODE\MEDCO_3PH_TENDER\Three-Phase-Base-MVVNL_Base-Code_010324_FOR_GUJRAT_UNI_47 -VER06_final - Copy\Application\" -character_set=none -goptimize -dev="C:\Program Files (x86)\Renesas Electronics\CS+\CC\Device\RL78\Devicefile\DR5F10NPJ.DVF" -prn_path=Release_BQFR -output="D:\Sushmita\TENDER\2025\3_PHASE_METER_CODE\MEDCO_3PH_TENDER\Three-Phase-Base-MVVNL_Base-Code_010324_FOR_GUJRAT_UNI_47 -VER06_final - Copy\Application\Build\Release_BQFR\MY_interrupts.obj" C:\Users\sys_f\AppData\Local\Temp\$ccrl\MY_interrupts.asm 

